-----BEGIN CERTIFICATE-----
MIIEDTCCAfUCFERKFVltJ7WKdcToQD5kEbWXcKVGMA0GCSqGSIb3DQEBCwUAMEEx
CzAJBgNVBAYTAlBUMQswCQYDVQQIDAJMWDESMBAGA1UECgwJQnVtYmFrbGF0MREw
DwYDVQQDDAhodHRweC1jYTAgFw0yNTA0MTYxMTU0NDdaGA8zMDA1MDYxODExNTQ0
N1owQzELMAkGA1UEBhMCUFQxCzAJBgNVBAgMAkxYMRIwEAYDVQQKDAlCdW1iYWts
YXQxEzARBgNVBAMMCmh0dHBzcHJveHkwggEiMA0GCSqGSIb3DQEBAQUAA4IBDwAw
ggEKAoIBAQCkLIKbFZredyoj2k8xXUmGjLGjaGGZwuHNC7cWcu46YDy19+wWB+X7
DIYz93GchX8bs15g1/PokdC5k+RQFxVmhgKR7Ue9vqi6Kzv63RyfDXFZoN2TeUV6
/xDHU03s8LdcgCQQHQ8jQaHdVRPI8z/CFxcdeyOdV0inHOLVEXvJ88CsKKROeq2f
/IZI5NckswmDjO6LTI2eLTEp39IvjG6ELF9t8rEZrgcNR9T7EJHTuUpd1jbZMcVn
Kbm4Bt1gm+uLBOkZ+LUVZSfmsNT89yw4/G9FwkmOaKZsnZxgnRPriXxkVhmRsADc
hhcni7IFCa4FNxmOBI3n2zZtBIMQ2hWnAgMBAAEwDQYJKoZIhvcNAQELBQADggIB
AI4UrzGqPYvZvbqz2tO5fQgQ8zpzcmdIqhUGekXyJdboKZUfUZ6tDeXcXXdBbHwN
4ipiKEpwVPZ6PGTGLUp2eIEzNST77+wRIsT9v+js+yZZrPBFTJd0BJVUnJNwlch5
CY3FqZ81UCFveEZ3WIMvm5MXeClYzWJ7HLLzTMzpiI7j/XSAnAJme61DXPL1xy+6
lrsCQ9P4NKFb3ragSItPSh6jr7lWySEzf760M1yNdzikr2e6fwa/TSY0Zfdv68fa
Ggib2eg6KDCYWNympl0Fnd2+xb5RnDqyM/d4Xx12XcTUhq8y0bZGCNXnpMNVMhGn
TZgnfk9u28mjajlGx+8qr+CdCUPzayKYznXClzFdErnfA1y1i/r4nNig0xAtmCpw
4OhtqBTJjkBrp38CWXoj4yyxqqj0ZYHj6DIBx7ZpiueCvmlW/GOMJJVsMvQ+uhw+
0r/dgaV6cw7GTdzLPpkdoj3JQh1ZrfkwBZ4lrPVJr9Cxab6cW6WqX6RRsLz85K46
sg4oAidAU8ppQ6ODpOB2x/pjrrZGW16Hqat6B8C8cGdjBya/PykjTptv651HiXo2
t0l6AFUI77qHiUQWcuJ7Z7s9XZj7jj5k7BSB07mLloYoS4idDxtFRNJ9+iw1Lsz4
8HhvqW78zTBnL5L9o+8Ol37STbhnSF19WQWsvWqyqegc
-----END CERTIFICATE-----
-----BEGIN CERTIFICATE-----
MIIEBjCCAe4CFERKFVltJ7WKdcToQD5kEbWXcKVFMA0GCSqGSIb3DQEBCwUAMEEx
CzAJBgNVBAYTAlBUMQswCQYDVQQIDAJMWDESMBAGA1UECgwJQnVtYmFrbGF0MREw
DwYDVQQDDAhodHRweC1jYTAgFw0yNTA0MTYxMTU0NDdaGA8zMDA1MDYxODExNTQ0
N1owPDELMAkGA1UEBhMCUFQxCzAJBgNVBAgMAkxYMRIwEAYDVQQKDAlCdW1iYWts
YXQxDDAKBgNVBAMMA2RvaDCCASIwDQYJKoZIhvcNAQEBBQADggEPADCCAQoCggEB
AJbOMWu53vZ3ZtwDxJ2wmVeD3Zfvt2J0yYyNExPPTPzoi7Kczimcm6bQ839MnE18
wXTGCfMPzxEmGXn9msTtLOJ0syb/iNEUMD4ThwxfbhV63QBCIezOFY3gSkQdMZ0I
wMFsgHFbiCveV3CzA+33U64wZVidOf22H1WYt4z07IxiLgXiybJE0vJKb1JYvcP1
4FQNwkAxnby+8Ing2aVqJk5qM2yJsTzoJV2h9GibmjoxcWsXxvQcF22Rra0+cQtQ
/ZfWlmJZDOYOFvykapFHQIdvEuOv+5QJBB8pGAuYKur4faO9E3r7pax4gJD3qwDu
eIHeRYyygZKYnA+4Z8vE4RUCAwEAATANBgkqhkiG9w0BAQsFAAOCAgEAFizPkHqa
maiXsY9HsDnC+dSfu7MeUuqLzBIFBZLUATwvoyyRSXB36LQ4n4YRe64PF5kRSeIz
jLTQKqXGZyM2/B1H+RxWdJUrLoRNCNEc6LP8CvCvJIjgpVGJdTbyK/+Ca9UovwMq
OImkagBIyh4wfqIUPRuEpPILPMK0NJvIH8MxgynwL7PdmW8qyYvkeUIM46z2qRPJ
ZyUVvZ+dox6nrGJ/wj7iv+7S+4v0lPwUiYGRK7SzIY5R7dJw8O5YKrr6jLpFbsYe
lK5fT9nkImEAoBbXmR1vTbvJ2FuZCKQmRS50xLO1B0qwmwapjUyR7lgqCtd4ZbRP
mejrpt279S09I56HWgx2QlvWzDfBQ4pad89tkDJyk9iQUX4NFdETtKXbogeIssYN
O9npMfO5wSzxUu6Ivodqu7IPxIS/EjVmnNOLXVXiTdrD5sFzceF/VOtK29g3fbsC
564fCUi1viKQapvcuO6pZmftEwsVq0Me5L3LKzV8lBd7yVnp2nJLAfK8b3MLuslA
d4SZhUKqKVsM6ay11kNhIh5+6Xf8rLP/TCaeGEx9I1TSQuMjvS2w5XmAwcVgsCzu
7popkAS79ooXB8nGe8Q9TmYrTVz/LrzOfqXi7iUIt4QSs7d+q7V80ydn/7oYFXgx
kYKzGitqG0AbXhX5NWmd441dMJV2iMMHqIw=
-----END CERTIFICATE-----
Certificate:
    Data:
        Version: 3 (0x2)
        Serial Number: 2 (0x2)
        Signature Algorithm: sha256WithRSAEncryption
        Issuer: C=PT, ST=LX, O=Bumbaklat, CN=httpx-ca
        Validity
            Not Before: Apr 16 11:54:46 2025 GMT
            Not After : Apr 16 11:54:46 2026 GMT
        Subject: C=PT, ST=LX, O=Bumbaklat, CN=localhost-server
        Subject Public Key Info:
            Public Key Algorithm: rsaEncryption
                Public-Key: (2048 bit)
                Modulus:
                    00:9e:13:0d:b3:46:44:15:bd:a6:ef:e6:63:ce:90:
                    28:37:7d:f5:b0:6e:52:16:0b:47:76:ae:31:33:13:
                    2c:87:18:4d:e8:4c:ab:67:d0:84:5f:f7:fb:15:a5:
                    89:79:7c:f6:a2:b7:5c:7c:86:83:f1:c9:82:6c:d8:
                    d0:1a:8d:30:96:bb:cd:28:75:5f:7b:8e:f1:bf:a7:
                    26:6f:e3:7a:37:12:33:ef:91:45:22:b0:29:22:41:
                    14:c1:c6:32:e1:81:77:be:0f:8d:13:0b:d0:17:21:
                    07:35:cb:10:aa:8d:61:cc:67:6a:50:7c:91:18:bc:
                    e5:54:6e:cc:83:31:ab:9d:5e:c5:97:60:c8:8a:17:
                    82:94:f5:7f:ba:b8:ce:ab:80:d1:8c:9d:8b:52:00:
                    92:fd:a9:fd:05:44:a0:7d:3b:84:f5:55:cb:80:bc:
                    0a:0c:73:bf:41:a9:4e:3b:b9:e9:64:82:bd:ca:83:
                    74:e9:9a:e7:fa:b7:02:3d:58:56:eb:43:b1:1c:35:
                    e2:85:87:3d:13:8c:06:ae:24:3f:af:7c:d8:01:90:
                    5d:9b:3d:19:5c:33:18:ea:22:7b:aa:b6:4b:9b:a9:
                    82:55:7a:f1:39:70:19:31:ed:f0:91:8f:44:43:bb:
                    92:81:c5:74:8b:d2:9c:e8:b4:85:91:74:dc:36:c9:
                    c8:e5
                Exponent: 65537 (0x10001)
        X509v3 extensions:
            X509v3 Basic Constraints:
                CA:FALSE
            X509v3 Subject Alternative Name:
                DNS:localhost, IP Address:127.0.0.1, IP Address:0:0:0:0:0:0:0:1
            X509v3 Subject Key Identifier:
                01:2C:B2:AA:BB:8B:3B:60:26:F5:C6:1A:D2:5F:A4:F9:3D:D3:1B:6C
            X509v3 Authority Key Identifier:
                73:F5:28:0B:09:15:DC:36:FF:5C:B1:E3:BF:9C:BF:42:36:AC:30:4D
    Signature Algorithm: sha256WithRSAEncryption
    Signature Value:
        c7:78:aa:e6:f0:7a:22:af:ad:7a:52:e5:aa:84:60:4c:11:7b:
        7b:fd:2e:26:25:d6:66:1e:c8:77:68:1e:af:0d:6c:65:1f:16:
        8e:82:24:f6:4e:c1:4f:6f:42:57:2d:c5:47:5b:93:97:a2:74:
        92:4d:f5:16:66:75:2e:e8:06:2f:bc:36:bd:bf:ff:47:27:56:
        cd:72:59:d5:a1:30:3f:25:e9:e4:31:5d:8e:1d:61:e8:47:d0:
        5f:58:58:a0:91:bb:05:fc:24:49:23:76:8b:5d:38:c6:51:93:
        64:20:f4:74:7b:b8:92:72:f2:2b:c4:d6:15:f2:a5:1b:63:11:
        d2:9d:e2:08:c2:80:b2:5b:29:35:dc:f6:32:8d:66:86:1c:bb:
        f4:db:ae:fd:67:55:67:ff:d3:cf:18:d7:9f:07:f3:e6:1d:26:
        eb:4f:c0:b7:b4:fa:c8:5e:c5:dd:72:6c:04:02:c6:cb:0d:81:
        6c:b4:d3:eb:73:44:a8:17:f1:0e:d4:0f:ed:af:0a:86:a0:74:
        ac:3c:38:b1:93:d2:19:28:0e:2b:32:d4:a7:7a:b1:f0:08:9d:
        a4:32:c1:ad:a1:48:77:6e:64:0f:c3:97:da:61:83:89:06:e7:
        ed:d1:57:38:2f:98:6a:8a:7f:d2:8d:66:19:71:22:c0:c8:39:
        a7:94:30:c1:d7:a8:3f:bd:25:4b:0c:bc:9f:89:ae:ef:93:df:
        af:a6:c9:f4:e9:71:4a:c0:b1:ad:e0:e9:a7:00:7b:7e:60:bc:
        5f:ef:18:2d:79:8a:4d:0e:92:f7:b9:19:29:7c:0f:81:15:84:
        ba:ec:f2:37:d9:c1:c0:cc:fb:95:aa:23:39:df:97:55:e1:93:
        f5:3d:26:08:42:21:21:c8:8f:ed:62:73:bf:3e:97:72:5d:03:
        b7:be:81:eb:fe:25:44:49:f9:3c:e9:ed:15:0d:fc:a3:e7:57:
        5d:d3:46:85:8d:5e:48:c4:ca:d1:a0:b6:b7:c6:76:36:af:08:
        2d:1b:0e:79:d5:91:71:26:24:1a:ce:66:8b:b3:72:20:6f:34:
        8d:80:04:43:ca:52:c6:a5:49:e8:df:0f:da:b6:f8:c0:af:5a:
        6d:55:60:92:1f:7f:35:d9:96:86:36:4b:85:6c:9d:5c:d8:ff:
        14:72:32:4c:a1:95:e0:f4:a1:d8:b8:a1:86:97:3f:f1:09:7e:
        3a:c8:cb:f0:1f:15:61:08:44:fd:fc:20:bd:cd:de:d9:66:d3:
        d1:45:28:2f:2b:6a:92:6e:ef:d6:c7:e5:ff:29:f1:74:ce:2b:
        f4:d3:23:99:37:0d:74:02:a5:3d:89:b7:7d:3b:ac:a6:5a:16:
        ad:fb:e7:84:5a:ce:db:37
-----BEGIN CERTIFICATE-----
MIIEgDCCAmigAwIBAgIBAjANBgkqhkiG9w0BAQsFADBBMQswCQYDVQQGEwJQVDEL
MAkGA1UECAwCTFgxEjAQBgNVBAoMCUJ1bWJha2xhdDERMA8GA1UEAwwIaHR0cHgt
Y2EwHhcNMjUwNDE2MTE1NDQ2WhcNMjYwNDE2MTE1NDQ2WjBJMQswCQYDVQQGEwJQ
VDELMAkGA1UECAwCTFgxEjAQBgNVBAoMCUJ1bWJha2xhdDEZMBcGA1UEAwwQbG9j
YWxob3N0LXNlcnZlcjCCASIwDQYJKoZIhvcNAQEBBQADggEPADCCAQoCggEBAJ4T
DbNGRBW9pu/mY86QKDd99bBuUhYLR3auMTMTLIcYTehMq2fQhF/3+xWliXl89qK3
XHyGg/HJgmzY0BqNMJa7zSh1X3uO8b+nJm/jejcSM++RRSKwKSJBFMHGMuGBd74P
jRML0BchBzXLEKqNYcxnalB8kRi85VRuzIMxq51exZdgyIoXgpT1f7q4zquA0Yyd
i1IAkv2p/QVEoH07hPVVy4C8Cgxzv0GpTju56WSCvcqDdOma5/q3Aj1YVutDsRw1
4oWHPROMBq4kP6982AGQXZs9GVwzGOoie6q2S5upglV68TlwGTHt8JGPREO7koHF
dIvSnOi0hZF03DbJyOUCAwEAAaN7MHkwCQYDVR0TBAIwADAsBgNVHREEJTAjggls
b2NhbGhvc3SHBH8AAAGHEAAAAAAAAAAAAAAAAAAAAAEwHQYDVR0OBBYEFAEssqq7
iztgJvXGGtJfpPk90xtsMB8GA1UdIwQYMBaAFHP1KAsJFdw2/1yx47+cv0I2rDBN
MA0GCSqGSIb3DQEBCwUAA4ICAQDHeKrm8Hoir616UuWqhGBMEXt7/S4mJdZmHsh3
aB6vDWxlHxaOgiT2TsFPb0JXLcVHW5OXonSSTfUWZnUu6AYvvDa9v/9HJ1bNclnV
oTA/JenkMV2OHWHoR9BfWFigkbsF/CRJI3aLXTjGUZNkIPR0e7iScvIrxNYV8qUb
YxHSneIIwoCyWyk13PYyjWaGHLv02679Z1Vn/9PPGNefB/PmHSbrT8C3tPrIXsXd
cmwEAsbLDYFstNPrc0SoF/EO1A/trwqGoHSsPDixk9IZKA4rMtSnerHwCJ2kMsGt
oUh3bmQPw5faYYOJBuft0Vc4L5hqin/SjWYZcSLAyDmnlDDB16g/vSVLDLyfia7v
k9+vpsn06XFKwLGt4OmnAHt+YLxf7xgteYpNDpL3uRkpfA+BFYS67PI32cHAzPuV
qiM535dV4ZP1PSYIQiEhyI/tYnO/PpdyXQO3voHr/iVESfk86e0VDfyj51dd00aF
jV5IxMrRoLa3xnY2rwgtGw551ZFxJiQazmaLs3IgbzSNgARDylLGpUno3w/atvjA
r1ptVWCSH3812ZaGNkuFbJ1c2P8UcjJMoZXg9KHYuKGGlz/xCX46yMvwHxVhCET9
/CC9zd7ZZtPRRSgvK2qSbu/Wx+X/KfF0ziv00yOZNw10AqU9ibd9O6ymWhat++eE
Ws7bNw==
-----END CERTIFICATE-----
Certificate:
    Data:
        Version: 3 (0x2)
        Serial Number: 1 (0x1)
        Signature Algorithm: sha256WithRSAEncryption
        Issuer: C=PT, ST=LX, O=Bumbaklat, CN=httpx-ca
        Validity
            Not Before: Apr 16 11:54:46 2025 GMT
            Not After : Apr 16 11:54:46 2026 GMT
        Subject: C=PT, ST=LX, O=Bumbaklat, OU=nghttp2, CN=nghttp2
        Subject Public Key Info:
            Public Key Algorithm: rsaEncryption
                Public-Key: (2048 bit)
                Modulus:
                    00:a9:ac:94:ef:23:6f:b3:63:45:6f:40:ec:3c:06:
                    48:5c:82:9b:fc:11:f7:f1:ab:e9:59:a6:d7:71:bf:
                    bc:c3:fb:42:b4:85:39:58:6f:cc:ed:bd:2c:32:32:
                    c1:0f:c0:36:ee:f0:be:99:76:60:78:7d:fa:a2:91:
                    b1:16:f9:80:b2:91:71:e6:bf:e3:02:08:a6:67:0c:
                    27:f7:e1:9a:6a:41:dc:1f:f4:9f:48:08:f1:4e:79:
                    b7:bc:8e:82:fc:c2:4a:f4:cb:7e:e6:7c:af:a1:b7:
                    d0:87:53:5a:dd:4b:88:8a:3a:16:14:67:9e:bd:5f:
                    5b:b8:0c:d5:87:45:75:37:ba:eb:43:f2:cc:18:54:
                    35:09:99:41:a0:bc:6b:31:fc:5d:b0:57:7f:0f:93:
                    26:07:dd:07:0f:6a:18:67:87:f7:ac:df:59:62:3b:
                    20:a0:e0:f2:c6:34:f8:bc:35:d4:30:53:58:e5:77:
                    d1:a9:9e:43:bc:ab:38:30:18:3d:f5:15:07:54:b9:
                    8c:ff:df:bd:39:5c:06:24:9a:56:b4:76:1e:f5:93:
                    44:78:b6:c2:4d:69:c4:94:fa:63:3f:c9:90:d5:f5:
                    fa:20:65:35:4f:ba:d4:f8:6d:1d:2c:57:bf:e0:39:
                    3d:b2:79:28:35:83:e3:3a:b1:9a:1d:a0:02:45:7c:
                    86:d3
                Exponent: 65537 (0x10001)
        X509v3 extensions:
            X509v3 Basic Constraints:
                CA:FALSE
            X509v3 Subject Alternative Name:
                DNS:nghttp2, DNS:another, DNS:another2
            X509v3 Subject Key Identifier:
                9E:E3:DC:09:0A:AA:B3:83:8F:8E:54:CB:B6:1A:03:C3:60:8D:6D:95
            X509v3 Authority Key Identifier:
                73:F5:28:0B:09:15:DC:36:FF:5C:B1:E3:BF:9C:BF:42:36:AC:30:4D
    Signature Algorithm: sha256WithRSAEncryption
    Signature Value:
        0a:2b:61:a2:9f:1c:c6:ac:e3:59:3f:f9:dc:b7:28:6d:70:6b:
        a5:96:60:d7:0b:9a:d5:70:b1:98:04:e7:f4:63:e4:06:d8:b0:
        01:fc:49:ce:8d:0b:cc:46:2e:1c:68:59:4a:3e:f2:89:4e:38:
        cd:4f:be:a5:85:3f:2c:07:39:2a:b8:0f:a1:45:a9:8a:e7:c5:
        fd:d3:b0:fc:50:b0:23:5f:16:42:84:83:14:38:35:6b:42:4b:
        e8:2c:46:08:4a:a2:5b:32:ec:b8:67:01:82:53:a0:53:ec:49:
        9d:e9:b9:d1:9f:b8:94:ce:42:96:53:1f:dd:2c:c4:fb:73:4f:
        e4:46:9a:f7:84:0f:d5:64:89:d6:6d:a4:ee:03:aa:21:8f:94:
        80:59:6e:ee:bf:1a:10:e5:4a:e9:73:db:bb:87:95:07:d3:3b:
        b1:aa:4b:ef:82:86:77:b6:80:63:8e:44:69:2d:55:fa:03:a4:
        6d:f5:3f:7d:fd:80:93:77:d4:1f:4a:2a:fb:ee:22:87:7a:48:
        93:8a:ed:eb:55:c2:5e:a7:06:15:cf:d8:fe:83:07:28:ba:e5:
        82:66:d7:af:00:66:bd:c6:38:00:ec:59:ab:f9:da:f3:27:fb:
        2d:8c:1b:d3:06:a4:a2:0c:1f:ec:d9:e7:0f:7d:71:bd:6c:38:
        12:b8:09:53:bf:b5:26:d6:54:b4:8d:af:42:87:a9:06:0c:24:
        c4:fe:56:80:73:46:5f:74:b5:5b:30:16:dc:9f:80:cc:10:a7:
        90:b2:2c:67:55:3a:98:c6:f4:7a:d6:0d:08:43:3d:ea:a8:44:
        d9:bd:13:29:34:af:a7:0d:a7:4a:19:43:e6:f5:9b:de:b3:c3:
        d7:97:42:cf:b9:1b:ad:89:ea:79:42:20:ae:93:1c:8d:73:a1:
        e7:bc:17:6a:bb:54:3b:ec:ed:13:17:ea:36:ee:29:dd:6a:4c:
        e8:56:71:93:77:1f:5c:e9:e1:c7:f3:40:7a:fa:d3:25:86:27:
        f2:6b:4a:02:80:9e:6c:ee:e6:96:a7:60:17:3c:8f:6e:e5:63:
        ab:be:39:6b:63:2a:ee:af:4e:41:aa:18:24:56:23:52:9d:66:
        a1:7d:af:3e:26:4c:ec:8e:64:fb:1c:0f:08:cd:a5:23:83:ac:
        8d:14:02:fd:e1:14:9b:8d:e5:87:77:d2:1e:14:ee:96:c3:09:
        80:c9:00:6c:58:27:94:fb:e8:d5:09:d1:bc:d4:26:35:87:7d:
        ce:a1:23:73:97:d6:60:50:cc:9f:9f:e3:59:d5:29:65:4d:65:
        9e:a5:6f:8d:d8:9b:4b:c5:c1:01:72:57:85:74:1c:fe:7e:db:
        55:ca:93:79:09:bf:35:1f
-----BEGIN CERTIFICATE-----
MIIEgjCCAmqgAwIBAgIBATANBgkqhkiG9w0BAQsFADBBMQswCQYDVQQGEwJQVDEL
MAkGA1UECAwCTFgxEjAQBgNVBAoMCUJ1bWJha2xhdDERMA8GA1UEAwwIaHR0cHgt
Y2EwHhcNMjUwNDE2MTE1NDQ2WhcNMjYwNDE2MTE1NDQ2WjBSMQswCQYDVQQGEwJQ
VDELMAkGA1UECAwCTFgxEjAQBgNVBAoMCUJ1bWJha2xhdDEQMA4GA1UECwwHbmdo
dHRwMjEQMA4GA1UEAwwHbmdodHRwMjCCASIwDQYJKoZIhvcNAQEBBQADggEPADCC
AQoCggEBAKmslO8jb7NjRW9A7DwGSFyCm/wR9/Gr6Vmm13G/vMP7QrSFOVhvzO29
LDIywQ/ANu7wvpl2YHh9+qKRsRb5gLKRcea/4wIIpmcMJ/fhmmpB3B/0n0gI8U55
t7yOgvzCSvTLfuZ8r6G30IdTWt1LiIo6FhRnnr1fW7gM1YdFdTe660PyzBhUNQmZ
QaC8azH8XbBXfw+TJgfdBw9qGGeH96zfWWI7IKDg8sY0+Lw11DBTWOV30ameQ7yr
ODAYPfUVB1S5jP/fvTlcBiSaVrR2HvWTRHi2wk1pxJT6Yz/JkNX1+iBlNU+61Pht
HSxXv+A5PbJ5KDWD4zqxmh2gAkV8htMCAwEAAaN0MHIwCQYDVR0TBAIwADAlBgNV
HREEHjAcggduZ2h0dHAyggdhbm90aGVygghhbm90aGVyMjAdBgNVHQ4EFgQUnuPc
CQqqs4OPjlTLthoDw2CNbZUwHwYDVR0jBBgwFoAUc/UoCwkV3Db/XLHjv5y/Qjas
ME0wDQYJKoZIhvcNAQELBQADggIBAAorYaKfHMas41k/+dy3KG1wa6WWYNcLmtVw
sZgE5/Rj5AbYsAH8Sc6NC8xGLhxoWUo+8olOOM1PvqWFPywHOSq4D6FFqYrnxf3T
sPxQsCNfFkKEgxQ4NWtCS+gsRghKolsy7LhnAYJToFPsSZ3pudGfuJTOQpZTH90s
xPtzT+RGmveED9VkidZtpO4DqiGPlIBZbu6/GhDlSulz27uHlQfTO7GqS++Chne2
gGOORGktVfoDpG31P339gJN31B9KKvvuIod6SJOK7etVwl6nBhXP2P6DByi65YJm
168AZr3GOADsWav52vMn+y2MG9MGpKIMH+zZ5w99cb1sOBK4CVO/tSbWVLSNr0KH
qQYMJMT+VoBzRl90tVswFtyfgMwQp5CyLGdVOpjG9HrWDQhDPeqoRNm9Eyk0r6cN
p0oZQ+b1m96zw9eXQs+5G62J6nlCIK6THI1zoee8F2q7VDvs7RMX6jbuKd1qTOhW
cZN3H1zp4cfzQHr60yWGJ/JrSgKAnmzu5panYBc8j27lY6u+OWtjKu6vTkGqGCRW
I1KdZqF9rz4mTOyOZPscDwjNpSODrI0UAv3hFJuN5Yd30h4U7pbDCYDJAGxYJ5T7
6NUJ0bzUJjWHfc6hI3OX1mBQzJ+f41nVKWVNZZ6lb43Ym0vFwQFyV4V0HP5+21XK
k3kJvzUf
-----END CERTIFICATE-----
-----BEGIN CERTIFICATE-----
MIIFZTCCA02gAwIBAgIUH9KTFJzXJwvx2tL2RdOFusDIg2swDQYJKoZIhvcNAQEL
BQAwQTELMAkGA1UEBhMCUFQxCzAJBgNVBAgMAkxYMRIwEAYDVQQKDAlCdW1iYWts
YXQxETAPBgNVBAMMCGh0dHB4LWNhMCAXDTI1MDQxNjExNTQ0NloYDzMwMDUwNjE4
MTE1NDQ2WjBBMQswCQYDVQQGEwJQVDELMAkGA1UECAwCTFgxEjAQBgNVBAoMCUJ1
bWJha2xhdDERMA8GA1UEAwwIaHR0cHgtY2EwggIiMA0GCSqGSIb3DQEBAQUAA4IC
DwAwggIKAoICAQDHiwAQ8fHkClzAYh8532XjnZUwGUgFLkyeC6Q5ic73FNG/sikm
q1uxVF35nxR3LYsvGJshNhOv2X2ZJjNMnxRHNNLm88kuGR1HG7VwepOhxDDHTVvV
BQbJSAUJLzBbWQnniymTkHQhfj2GdTJ6Nz4HlP54dC7hZxSZz5LtMD5gI7yG+5DW
nK9mdkjJvZOom8qY2Rk/0Fo8jjs8KWzcZfM0vZ0Mv8pCVxwk2PC9eV/8I5zEHKSR
bV60PG7HL0tLLz4UFsnAp6xY23jICYHJWRwaoX8GHi4VC2wuS1cDYGloSfVdSlzv
MWd+c/GrzOIOwPviQar/Qe7zDgjGcjPWttossprj4uiYFPGzbwLDyQRFcTXBX0Gm
dXBlSGuzAY0Mk624HbAWLwxD3xJZ712wrTYktogI87fVz+CY4sF0tKnTJGFiHc6Z
PPUbR5HDm0wiRyQj2eO6AO7pUsHKheGO2dK3tT44M3Ye7e3vONjSKfTgquu7yTwy
Yltp/tbF+A/A/sAjR58P2HLO/uUU0kZLaME7t9mDr3eaWpLUM5eakal1mIabZnXF
JiUReSOjWOY/WE2Xcz34ZA0q62VywaP6aKZcIfsm9g1nmXaczDJm5niJmeViunZu
RHTy3pi9QkGZT9feROvdGcMGPj4VBndLO5ue5ZhPXF5mYHPsTfdUdsAu4wIDAQAB
o1MwUTAdBgNVHQ4EFgQUc/UoCwkV3Db/XLHjv5y/QjasME0wHwYDVR0jBBgwFoAU
c/UoCwkV3Db/XLHjv5y/QjasME0wDwYDVR0TAQH/BAUwAwEB/zANBgkqhkiG9w0B
AQsFAAOCAgEAW/3oN0rU+kQapoK7pgvZwHiPZZalR9uBzmOxe1ECvr57rbuOrOrG
3kQR3Il7AOEBBRzfCeKqiEL/1JS46YS5LWAy23cTxDg8B+GGUYA+LJEGtW/JAX1C
k3WX3QfoeZbuqcLQfhk+3oRMboGYUn2EIjdKhHgf/rvUcqf43DvCdTF4drR9n372
LZXrbtQIQZ0RqRVoqrPJeKH0r6SNWwKS6WNSuZzK5bVch31gVsWmjmhvQA4cKxl/
/3nZWqQESG8wH7Eib723Og35NpW+Pc/thEoxt+z5m4DRvhugz+oV7K14dIvDdh6P
XmeotoWNhXDBVNUQGEEM8OBM/bP/RnJcmO+hVkS8bD9j5nEZFxe7gOFM9XHA1qtu
X6p735GgmUrjW++NhWIRdZHXU35adZbNmZtlXMUrWdMJTnEtVjJkl3qeaPORrBaT
JJybHFoT0DxfHQTSBo8TjO7RE3dFY5UgM2SP9MO9yrqWvowIuHgPMG82GI5062pG
lTcwa2bvzu2m4Fne+wlXwyyGWdPVv1fOyMEhS07WE3+bHDnIsoR1dnFVtIbQpthq
/FhfaWvhjdP3MoZ1NQggId+y5pP9z85AnAEgA7pthSyGnsNGY0jtp8fU4rW6up5b
Llodoijv9mOrzQPRD57+P5kITYDW3rFbYeSqpplrnk6OPGGBaH6ju40=
-----END CERTIFICATE-----
