-----BEGIN CERTIFICATE-----
MIIETzCCAjegAwIBAgIUC11XMsPmwR+Q/VOVunnSPemTkW8wDQYJKoZIhvcNAQEL
BQAwQTELMAkGA1UEBhMCUFQxCzAJBgNVBAgMAkxYMRIwEAYDVQQKDAlCdW1iYWts
YXQxETAPBgNVBAMMCGh0dHB4LWNhMCAXDTI0MDkyNzA4MTA0NVoYDzMwMDQxMTI5
MDgxMDQ1WjA8MQswCQYDVQQGEwJQVDELMAkGA1UECAwCTFgxEjAQBgNVBAoMCUJ1
bWJha2xhdDEMMAoGA1UEAwwDZG9oMIIBIjANBgkqhkiG9w0BAQEFAAOCAQ8AMIIB
CgKCAQEAqOxazz2QtD0X9/P7QSVDg48f8P3x/VdaVzVrwrRypl7BBEsk30XGuz6H
t8n5As92gHHvY1mJyEn9BAveHH9/N+kE17aW5ehjnyvL4/XMXpK3t1LbKZP7C6Ks
4yGHTkLlPkC13SIQWKg4qdm+wPls8NAxsamBJ53zhc6QJgwgUXWrl+NM62w5FdTJ
9WsWWN0wYi7s7JJ5zp5CU1Mz5GwftFyBGuHYSxz/+tuuK7cXG7mFkdEyCHh/iZVn
HTZY3jMHLtl5wfs/9+l7PP1NbYiv7l0P+pOjx+oJ5Hkyc0IJb3KB18EhLnE4RWUF
S6rVzNW+4VOkFVSuIy2kxhXaYBOeiwIDAQABo0IwQDAdBgNVHQ4EFgQUjx3dBXVO
6LtnVecmrGL6qvqTo5owHwYDVR0jBBgwFoAUybKVSbecpfex3nTADnvmFhRO8lkw
DQYJKoZIhvcNAQELBQADggIBAJo6R54bAeJO34Ikj1+ERwjcHp2GDdkGk33B6Jqm
4PrEIucAfS4mekxniklTCEeamhUkSEB5U5CT98wypB3YaHDGQLLnacNuh9gVyNRN
slR17PvEwbpA1/SEhV8k78FAKzIDlh+mS0dFtKqSDDgmctqx3M/nCNizsSTdAnYD
2um4ufABp8zjJVDAwfG0oHkZ9YnL+mFvjXAgdx1RAJpFIfJNF7TbCGeQOEhw8BMm
khIa93AsFcY5Y9fB5yv/er4kCD6tachNpO5dvXd8Fc9WEteZPu0NDMuHlcfLk/Gb
d30hBds33II379wciinlKB3k5PwAoI9pVgSpEuozye0/OJy9JXoH+htApA6KD4nm
VQpODfet2yfT8R/PYPemJ3w2bOp3l9ILX4F0bKlaglE04aYqwDXesl5YpQeVUNIc
HPk0lJ7cTnWxmZ4Iy7pZAAWagQ9r2BqtAsy6+ZvVkFQoSCgW90x7fTlV9bOwTPKT
lz8xSyXFaqLyRb8qZxAXcp+XItnlObu+V1xX9ETVvxCq/qxrMgjwjqC4cjie9Uiz
y8lqL3hWYhWEWL+1OiJL3uWexUSrdaj4BhsCR3DHD5oNuZzjsPE+y3RLcD4lOShz
98SuwcVru50UaWaC5JfbaX8u90k6VWVcOEHQPnIAYfCEJ/NL9kjbO03MNjEWSGEt
YctV
-----END CERTIFICATE-----
Certificate:
    Data:
        Version: 3 (0x2)
        Serial Number: 2 (0x2)
        Signature Algorithm: sha256WithRSAEncryption
        Issuer: C=PT, ST=LX, O=Bumbaklat, CN=httpx-ca
        Validity
            Not Before: Sep 27 08:10:44 2024 GMT
            Not After : Sep 27 08:10:44 2025 GMT
        Subject: C=PT, ST=LX, O=Bumbaklat, CN=localhost-server
        Subject Public Key Info:
            Public Key Algorithm: rsaEncryption
                Public-Key: (2048 bit)
                Modulus:
                    00:97:dd:b0:d5:e6:c1:79:7b:3b:20:ea:c0:7d:cc:
                    b7:15:5a:be:e2:33:aa:51:cd:94:af:2d:03:3f:87:
                    47:10:61:4c:83:e8:c8:b6:d4:77:1a:2c:b1:8b:16:
                    d7:47:30:c4:ae:b6:90:2b:d6:39:83:ac:93:d2:9d:
                    78:df:6c:fd:c8:35:b0:33:8e:ad:b8:7b:67:fd:ff:
                    9d:1e:24:27:18:7b:da:64:97:9e:2f:b4:b2:14:3d:
                    f6:4a:71:79:0f:5f:c9:e5:ca:68:22:e3:e8:ac:97:
                    91:17:c5:0e:e6:74:43:a1:0c:21:ad:ca:47:83:51:
                    29:6c:53:67:a0:ef:90:95:87:1b:0f:11:98:32:d0:
                    9d:9e:6c:f9:9b:17:0b:26:64:d8:e3:e8:c8:d5:cf:
                    c2:ce:ca:c8:67:ee:b9:5c:69:3d:4b:77:8d:4f:ee:
                    06:ef:44:22:17:ad:b7:a6:77:bd:90:41:28:89:4d:
                    82:9c:1a:63:b3:5e:82:64:e9:d3:00:e3:3e:d8:90:
                    f4:7c:2d:c4:02:04:a1:bf:70:f3:c8:19:3b:d0:87:
                    53:51:b2:70:28:f3:be:53:d5:52:16:a3:04:ba:74:
                    f0:66:d8:9b:71:e5:82:fc:fb:9a:de:86:4e:d5:02:
                    8f:82:11:2e:3b:5b:65:d4:07:98:cf:ed:bc:32:28:
                    98:e3
                Exponent: 65537 (0x10001)
        X509v3 extensions:
            X509v3 Basic Constraints: 
                CA:FALSE
            X509v3 Subject Alternative Name: 
                DNS:localhost, IP Address:127.0.0.1, IP Address:0:0:0:0:0:0:0:1
            X509v3 Subject Key Identifier: 
                EB:3E:59:7F:68:3C:6F:A1:E9:86:B0:B8:AA:96:B5:08:E5:BA:5E:9F
            X509v3 Authority Key Identifier: 
                C9:B2:95:49:B7:9C:A5:F7:B1:DE:74:C0:0E:7B:E6:16:14:4E:F2:59
    Signature Algorithm: sha256WithRSAEncryption
    Signature Value:
        2b:c4:73:62:e2:c2:3d:55:42:f7:2f:f4:de:30:11:30:84:33:
        04:2d:c3:71:67:2d:0a:ac:4b:60:ee:01:ab:06:97:45:a7:a2:
        5f:f9:40:c6:49:5f:96:62:5c:2f:ae:8e:1e:20:80:5e:bc:40:
        38:ac:20:c2:f3:18:d7:fc:60:a0:14:4e:94:2c:9b:b9:5e:fa:
        e6:23:ac:1f:fd:b6:e6:a9:ad:d6:08:12:f2:95:77:83:1e:2b:
        5e:34:50:7c:fd:70:db:4f:77:12:bd:05:c4:18:5b:78:2d:96:
        61:11:0a:05:e8:e6:c6:fc:b0:b7:97:d9:96:a5:be:73:4f:b6:
        6e:22:95:e2:c7:b3:3d:0f:51:bb:84:f2:36:b7:86:38:20:9a:
        7a:5c:69:23:82:fc:cc:49:f8:8c:23:84:e8:4a:b2:54:88:1a:
        81:22:97:16:53:bf:fd:02:fa:3a:10:cb:13:b8:71:25:07:f5:
        17:39:9b:e1:51:12:68:fa:7b:02:d0:f4:de:51:26:c3:df:42:
        a5:f6:05:cd:9e:ad:fd:dd:0e:e6:0a:d9:65:68:76:ff:ce:88:
        1e:df:59:77:05:7f:2e:5c:6a:4a:ff:af:cc:01:7d:5e:ee:5c:
        4b:22:0e:e6:97:b8:d4:e2:db:c1:1f:48:ac:63:21:b9:2b:dd:
        a9:20:b9:68:ee:b9:3f:ee:0e:7b:b5:be:73:2e:cf:ea:30:60:
        2c:05:6a:56:43:ed:37:36:f2:a6:e8:a4:09:3e:9b:d1:c8:10:
        eb:b1:8b:9c:78:55:6b:94:ef:f7:1a:44:08:19:77:ce:3a:28:
        e0:64:9d:f3:3f:a5:a9:2c:f4:bc:48:f7:62:e4:5c:19:20:2a:
        79:16:38:a4:95:6d:9b:82:fe:45:b6:82:e4:4d:b1:df:fb:1c:
        a2:30:f2:00:70:85:d6:be:f4:ff:0f:0b:37:8f:30:58:86:cf:
        b6:1f:c1:d4:b0:2c:4a:6d:e0:45:40:29:f5:b9:0c:72:e7:af:
        b2:1b:92:f2:16:1c:f9:b2:17:9a:8d:cc:b6:63:b7:3f:ad:78:
        92:47:6e:51:b0:1d:27:45:53:48:1a:e0:cf:0a:a3:11:e5:97:
        89:c4:95:63:1a:58:7e:0d:8e:8c:4f:8c:98:80:72:ac:0f:42:
        cf:93:17:c6:f5:0b:20:56:cd:b8:54:ac:75:a1:8f:3e:04:dc:
        89:80:f7:33:a6:82:f1:04:6a:dd:40:3b:83:e0:0a:24:9f:51:
        30:6b:55:76:7d:50:3e:d6:a6:c6:4a:b3:40:e5:cb:1b:8d:f1:
        5a:bd:f2:38:81:b6:b4:53:b7:05:9a:da:7c:15:b3:92:e6:b0:
        f2:a9:ce:3e:fd:da:3f:4f
-----BEGIN CERTIFICATE-----
MIIEgDCCAmigAwIBAgIBAjANBgkqhkiG9w0BAQsFADBBMQswCQYDVQQGEwJQVDEL
MAkGA1UECAwCTFgxEjAQBgNVBAoMCUJ1bWJha2xhdDERMA8GA1UEAwwIaHR0cHgt
Y2EwHhcNMjQwOTI3MDgxMDQ0WhcNMjUwOTI3MDgxMDQ0WjBJMQswCQYDVQQGEwJQ
VDELMAkGA1UECAwCTFgxEjAQBgNVBAoMCUJ1bWJha2xhdDEZMBcGA1UEAwwQbG9j
YWxob3N0LXNlcnZlcjCCASIwDQYJKoZIhvcNAQEBBQADggEPADCCAQoCggEBAJfd
sNXmwXl7OyDqwH3MtxVavuIzqlHNlK8tAz+HRxBhTIPoyLbUdxossYsW10cwxK62
kCvWOYOsk9KdeN9s/cg1sDOOrbh7Z/3/nR4kJxh72mSXni+0shQ99kpxeQ9fyeXK
aCLj6KyXkRfFDuZ0Q6EMIa3KR4NRKWxTZ6DvkJWHGw8RmDLQnZ5s+ZsXCyZk2OPo
yNXPws7KyGfuuVxpPUt3jU/uBu9EIhett6Z3vZBBKIlNgpwaY7NegmTp0wDjPtiQ
9HwtxAIEob9w88gZO9CHU1GycCjzvlPVUhajBLp08GbYm3Hlgvz7mt6GTtUCj4IR
LjtbZdQHmM/tvDIomOMCAwEAAaN7MHkwCQYDVR0TBAIwADAsBgNVHREEJTAjggls
b2NhbGhvc3SHBH8AAAGHEAAAAAAAAAAAAAAAAAAAAAEwHQYDVR0OBBYEFOs+WX9o
PG+h6YawuKqWtQjlul6fMB8GA1UdIwQYMBaAFMmylUm3nKX3sd50wA575hYUTvJZ
MA0GCSqGSIb3DQEBCwUAA4ICAQArxHNi4sI9VUL3L/TeMBEwhDMELcNxZy0KrEtg
7gGrBpdFp6Jf+UDGSV+WYlwvro4eIIBevEA4rCDC8xjX/GCgFE6ULJu5XvrmI6wf
/bbmqa3WCBLylXeDHiteNFB8/XDbT3cSvQXEGFt4LZZhEQoF6ObG/LC3l9mWpb5z
T7ZuIpXix7M9D1G7hPI2t4Y4IJp6XGkjgvzMSfiMI4ToSrJUiBqBIpcWU7/9Avo6
EMsTuHElB/UXOZvhURJo+nsC0PTeUSbD30Kl9gXNnq393Q7mCtllaHb/zoge31l3
BX8uXGpK/6/MAX1e7lxLIg7ml7jU4tvBH0isYyG5K92pILlo7rk/7g57tb5zLs/q
MGAsBWpWQ+03NvKm6KQJPpvRyBDrsYuceFVrlO/3GkQIGXfOOijgZJ3zP6WpLPS8
SPdi5FwZICp5FjiklW2bgv5FtoLkTbHf+xyiMPIAcIXWvvT/Dws3jzBYhs+2H8HU
sCxKbeBFQCn1uQxy56+yG5LyFhz5sheajcy2Y7c/rXiSR25RsB0nRVNIGuDPCqMR
5ZeJxJVjGlh+DY6MT4yYgHKsD0LPkxfG9QsgVs24VKx1oY8+BNyJgPczpoLxBGrd
QDuD4Aokn1Ewa1V2fVA+1qbGSrNA5csbjfFavfI4gba0U7cFmtp8FbOS5rDyqc4+
/do/Tw==
-----END CERTIFICATE-----
Certificate:
    Data:
        Version: 3 (0x2)
        Serial Number: 1 (0x1)
        Signature Algorithm: sha256WithRSAEncryption
        Issuer: C=PT, ST=LX, O=Bumbaklat, CN=httpx-ca
        Validity
            Not Before: Sep 27 08:10:44 2024 GMT
            Not After : Sep 27 08:10:44 2025 GMT
        Subject: C=PT, ST=LX, O=Bumbaklat, OU=nghttp2, CN=nghttp2
        Subject Public Key Info:
            Public Key Algorithm: rsaEncryption
                Public-Key: (2048 bit)
                Modulus:
                    00:dd:5c:72:89:22:63:66:dc:55:b2:3b:e3:43:94:
                    33:e1:23:fc:9b:4c:95:a9:82:a9:cb:b6:e0:12:05:
                    7a:e5:a1:66:54:f5:3a:ec:e1:0b:3f:0e:70:b3:5b:
                    1c:01:ea:e6:cb:88:be:89:f6:20:1c:3b:86:88:99:
                    01:ee:13:5c:e0:96:8b:02:34:83:d4:99:d3:df:cd:
                    de:91:13:84:1d:23:1a:62:55:72:67:1f:36:2d:22:
                    da:d8:a1:f9:22:9b:8a:19:1e:fa:3f:17:d9:9e:3e:
                    82:a2:8e:18:ae:e8:eb:4e:9c:33:52:54:2c:9b:4a:
                    89:84:aa:c5:87:36:6a:10:23:27:1f:43:cf:12:ba:
                    fe:48:b3:b8:b5:74:ff:9d:02:f3:9c:ff:0d:de:56:
                    4c:5f:52:09:97:16:9b:a5:75:b2:14:cb:6f:08:70:
                    d6:09:14:11:51:ff:d8:0d:6e:9b:9c:75:fb:f2:b9:
                    f6:7f:35:0b:84:2e:31:84:58:82:a3:4d:43:d8:03:
                    d6:22:40:54:c8:66:91:76:18:b4:b2:ce:27:55:cc:
                    ce:11:10:33:a2:cd:6a:ac:80:0e:fd:7c:eb:f9:39:
                    71:70:6d:96:80:03:76:38:84:47:03:99:a2:42:52:
                    f7:49:1c:27:46:32:c6:0c:09:e4:2d:10:39:df:03:
                    15:ef
                Exponent: 65537 (0x10001)
        X509v3 extensions:
            X509v3 Basic Constraints: 
                CA:FALSE
            X509v3 Subject Alternative Name: 
                DNS:nghttp2, DNS:another, DNS:another2
            X509v3 Subject Key Identifier: 
                B0:A8:A4:D5:02:47:AB:5B:FF:A4:09:07:D9:DA:A4:C2:86:25:D3:1A
            X509v3 Authority Key Identifier: 
                C9:B2:95:49:B7:9C:A5:F7:B1:DE:74:C0:0E:7B:E6:16:14:4E:F2:59
    Signature Algorithm: sha256WithRSAEncryption
    Signature Value:
        73:57:93:97:da:e9:e8:29:66:ba:07:9b:aa:e4:d7:99:43:44:
        7c:cd:fb:0b:07:fd:98:0b:d9:25:05:a5:31:df:76:99:e0:37:
        ba:f8:da:56:0f:8a:34:f7:08:d2:cc:84:30:09:99:3e:02:e8:
        14:cb:3b:36:f0:91:e3:a5:e0:9f:29:f0:6e:d0:6e:23:7f:4e:
        32:83:11:de:43:4e:63:30:11:eb:bb:d7:41:c4:6a:a5:4d:66:
        f9:2f:0d:0e:2a:26:b7:6c:dd:be:83:16:40:40:6c:c8:0f:7a:
        0d:b8:50:68:75:c6:36:50:e3:10:12:c3:0d:76:b1:a1:6f:ff:
        e4:bd:85:03:34:49:53:a9:59:35:92:41:d4:35:93:b5:b5:f8:
        c9:05:fe:8b:3b:9a:e4:7d:49:f5:e1:a3:d9:aa:c4:26:5f:f3:
        d4:f0:18:b5:cf:4c:a9:62:55:ea:72:3d:2e:d5:59:c3:28:7b:
        53:7a:55:03:03:2e:a5:2c:b7:35:e6:e1:2e:fe:f9:c2:f4:39:
        d9:07:9b:97:34:8a:0f:89:39:9e:9e:99:42:53:b9:7a:3d:d3:
        d6:28:39:d0:43:03:d9:7a:72:8f:f7:7f:8e:63:48:7f:e9:68:
        4d:c5:e6:71:82:e1:f4:f6:29:b3:6a:b7:09:77:76:d0:54:bd:
        3b:d4:9c:66:67:03:b0:79:21:d7:60:27:d4:c6:21:b5:37:20:
        54:6a:2d:1e:08:2c:40:52:9e:30:81:05:0b:d3:f8:ce:1b:38:
        32:c8:0b:b1:96:e4:b8:a8:93:0e:97:f6:01:08:71:6b:f4:b5:
        5b:be:33:c3:f8:a1:c4:c0:35:c0:d5:25:19:b7:b6:2a:30:f6:
        8f:0b:2b:cb:4d:49:41:ee:c8:d2:3a:3e:2f:8a:2a:37:ee:1c:
        48:1d:8a:d7:60:dd:43:88:bf:dd:5b:58:75:5d:c3:8c:6f:34:
        9d:ae:05:60:d8:cd:8e:28:5d:86:d9:a3:25:7b:2d:15:43:7c:
        a9:c6:dc:1c:b5:c5:8f:46:bc:1c:72:be:5d:f5:8d:cc:44:2b:
        08:33:61:6f:ed:41:2e:26:cb:38:fb:39:22:8f:47:2f:5c:a6:
        b4:aa:32:95:3e:ec:cf:c0:7c:fb:0c:75:c4:4a:cf:4f:ef:a8:
        52:85:ed:fe:f0:1d:0c:1f:57:64:4b:ef:bb:b6:6d:9d:e7:c7:
        d8:ec:b8:ca:eb:51:da:03:8c:6d:e6:fd:ba:39:44:61:db:72:
        37:12:8a:7f:98:73:2d:e4:7c:95:8b:32:26:89:7b:b8:9a:eb:
        7a:7b:7d:b4:31:dd:de:f2:12:db:86:01:a9:6f:b7:e3:be:6c:
        9d:4a:52:be:37:3e:de:e5
-----BEGIN CERTIFICATE-----
MIIEgjCCAmqgAwIBAgIBATANBgkqhkiG9w0BAQsFADBBMQswCQYDVQQGEwJQVDEL
MAkGA1UECAwCTFgxEjAQBgNVBAoMCUJ1bWJha2xhdDERMA8GA1UEAwwIaHR0cHgt
Y2EwHhcNMjQwOTI3MDgxMDQ0WhcNMjUwOTI3MDgxMDQ0WjBSMQswCQYDVQQGEwJQ
VDELMAkGA1UECAwCTFgxEjAQBgNVBAoMCUJ1bWJha2xhdDEQMA4GA1UECwwHbmdo
dHRwMjEQMA4GA1UEAwwHbmdodHRwMjCCASIwDQYJKoZIhvcNAQEBBQADggEPADCC
AQoCggEBAN1ccokiY2bcVbI740OUM+Ej/JtMlamCqcu24BIFeuWhZlT1OuzhCz8O
cLNbHAHq5suIvon2IBw7hoiZAe4TXOCWiwI0g9SZ09/N3pEThB0jGmJVcmcfNi0i
2tih+SKbihke+j8X2Z4+gqKOGK7o606cM1JULJtKiYSqxYc2ahAjJx9DzxK6/kiz
uLV0/50C85z/Dd5WTF9SCZcWm6V1shTLbwhw1gkUEVH/2A1um5x1+/K59n81C4Qu
MYRYgqNNQ9gD1iJAVMhmkXYYtLLOJ1XMzhEQM6LNaqyADv186/k5cXBtloADdjiE
RwOZokJS90kcJ0YyxgwJ5C0QOd8DFe8CAwEAAaN0MHIwCQYDVR0TBAIwADAlBgNV
HREEHjAcggduZ2h0dHAyggdhbm90aGVygghhbm90aGVyMjAdBgNVHQ4EFgQUsKik
1QJHq1v/pAkH2dqkwoYl0xowHwYDVR0jBBgwFoAUybKVSbecpfex3nTADnvmFhRO
8lkwDQYJKoZIhvcNAQELBQADggIBAHNXk5fa6egpZroHm6rk15lDRHzN+wsH/ZgL
2SUFpTHfdpngN7r42lYPijT3CNLMhDAJmT4C6BTLOzbwkeOl4J8p8G7QbiN/TjKD
Ed5DTmMwEeu710HEaqVNZvkvDQ4qJrds3b6DFkBAbMgPeg24UGh1xjZQ4xASww12
saFv/+S9hQM0SVOpWTWSQdQ1k7W1+MkF/os7muR9SfXho9mqxCZf89TwGLXPTKli
VepyPS7VWcMoe1N6VQMDLqUstzXm4S7++cL0OdkHm5c0ig+JOZ6emUJTuXo909Yo
OdBDA9l6co/3f45jSH/paE3F5nGC4fT2KbNqtwl3dtBUvTvUnGZnA7B5IddgJ9TG
IbU3IFRqLR4ILEBSnjCBBQvT+M4bODLIC7GW5Liokw6X9gEIcWv0tVu+M8P4ocTA
NcDVJRm3tiow9o8LK8tNSUHuyNI6Pi+KKjfuHEgditdg3UOIv91bWHVdw4xvNJ2u
BWDYzY4oXYbZoyV7LRVDfKnG3By1xY9GvBxyvl31jcxEKwgzYW/tQS4myzj7OSKP
Ry9cprSqMpU+7M/AfPsMdcRKz0/vqFKF7f7wHQwfV2RL77u2bZ3nx9jsuMrrUdoD
jG3m/bo5RGHbcjcSin+Ycy3kfJWLMiaJe7ia63p7fbQx3d7yEtuGAalvt+O+bJ1K
Ur43Pt7l
-----END CERTIFICATE-----
-----BEGIN CERTIFICATE-----
MIIFZTCCA02gAwIBAgIUBjSa2zHN1OYxjLugZP5NnvtCrA0wDQYJKoZIhvcNAQEL
BQAwQTELMAkGA1UEBhMCUFQxCzAJBgNVBAgMAkxYMRIwEAYDVQQKDAlCdW1iYWts
YXQxETAPBgNVBAMMCGh0dHB4LWNhMCAXDTI0MDkyNzA4MTA0NFoYDzMwMDQxMTI5
MDgxMDQ0WjBBMQswCQYDVQQGEwJQVDELMAkGA1UECAwCTFgxEjAQBgNVBAoMCUJ1
bWJha2xhdDERMA8GA1UEAwwIaHR0cHgtY2EwggIiMA0GCSqGSIb3DQEBAQUAA4IC
DwAwggIKAoICAQDKlYiXXpB4PzGpPvKNhIGP/Z0gK/l/5WsoTE+ASNvQ2wxINFsl
Q3vdjcIPn7iU2BUD3gXk6a9Y+6Ert/LEYHlnnGBKCnYqzA72uijiXayGBnEYWn4q
a2FQk065vQl1MX0T0U4WdveUWCJnAFncLJwPKh4JynCMAdRo6w+aPA4m5rpu0ZpQ
a5LVrimXhOG4L+kR5ULBUja0+gL6tt4/XwUqr2fACc0LB7/f4vuxTEkNgQZzn8GV
uzvKKHYu6+1bU6a42shlFCL2DeDL+6nIWm1GsVOxkV1GL3DoyQQ1jZyPA4lLxsfs
9cZod/vvDMdVRLveHMffV4Mx+4DeWjls31isoevoZx5NB4cDXSJxeoRk2226VcZl
KJZ3XrtES2cVKhexih0VYrYVVYjGRkeyWAjK6saS+B8gLTJ1N1mYOtw2pIMVdgie
gYUW1sEwtBsgtubgmG5o1ZKXnrqDzMCaGEjrdPdHyHxflFBfnitNdObWfhAryxl+
1UDOUzjS3qWrMTnRhFGEEpWxC5Ev901HPoxsKPpoz83tvDcvQTRTFRy11EndS29a
zqJ8VzAjkav9i13sj/CVjvNsPiR+V/A9LPSe5dI37g5ISqsbPsUXZ7z9hcyCBQaE
UpLnvQ61UIZCilPeZ9Aan9gWYJWF7Mh2tWj1LWxfCGpJIHVv4ixhy9Z+6QIDAQAB
o1MwUTAdBgNVHQ4EFgQUybKVSbecpfex3nTADnvmFhRO8lkwHwYDVR0jBBgwFoAU
ybKVSbecpfex3nTADnvmFhRO8lkwDwYDVR0TAQH/BAUwAwEB/zANBgkqhkiG9w0B
AQsFAAOCAgEAhvohrMWlfzEdLutGRZzZwgtpdgJluV7BfzFSdG2YE7Zh/R58/5ml
SASsZdxw52nRJzFIdBs3+GjUNT/xbzBKPumuojO42NADHgLsQ0OE0p803U0Dscby
B79NKbvdZHMC2IO6YJskxN940kWnYsj1kJ8+ZD6EFwoMFTyY/gG9TsdZ191V6byS
oYgkntFu/Qn4Gc80XbQ4i8YSQSGJ0D50aRshHnpygEbz/7L4c7UxAy40BtCGe8FR
Bk4iK4LYqRaE5xsbpqMKLaMDfeUAeswmOV154UXuxqtCmd+izcD+EH4ga7RL22C2
z9HvqtiX0lzNXFkkRSAhbrtJ9uD94h7JSDJ5axTwcrX2kpJKwEQF5Nts+j5HQjC3
Ud+Ss2nhdf90pka02gKpRqAWSAjFqrCx0/AnBo/3S0Gy1+PKCtA+Z2GyPIwArXy/
iSawVWKPX/hTr1dQgOaY777Sy5BbzKNbR9oujIZXMWJBg/BGyQmfo+bSJ/gUzxt7
6/4fGpOkwQlZKIzKTnfqYdqU2W6k4/Rm2DFEyXmUMQmE07yhKHK8Spq30vP6RcUR
AHzYciVBrqxARwMn1jE1x0tQjNYH4H9pD+r2rso1WLL/j1P0bwWhY2npOYN1yPUE
BJTm48nwB1A0+rsz03S70FT5cTaaGGG6mBwJBqXtmQQb/pq2xrPC5iA=
-----END CERTIFICATE-----
