-----BEGIN CERTIFICATE-----
MIIETzCCAzcCCQDQt3CEwQJa2DANBgkqhkiG9w0BAQUFADBhMQswCQYDVQQGEwJQ
VDELMAkGA1UECAwCTFgxDzANBgNVBAcMBkxpc2JvbjEQMA4GA1UECgwHbmdodHRw
MjEQMA4GA1UECwwHbmdodHRwMjEQMA4GA1UEAwwHbmdodHRwMjAeFw0xOTEyMjYx
NzQ5MDNaFw0yMDAxMjUxNzQ5MDNaMHIxCzAJBgNVBAYTAlBUMRAwDgYDVQQIDAdC
YWJ5bG9uMQswCQYDVQQHDAJMeDEMMAoGA1UECgwDZG9oMQwwCgYDVQQLDANkb2gx
DDAKBgNVBAMMA2RvaDEaMBgGCSqGSIb3DQEJARYLZG9oQGRvaC5jb20wggIiMA0G
CSqGSIb3DQEBAQUAA4ICDwAwggIKAoICAQDFhazXGG4R0Z7auG6BicrtKitzsuyG
u4JaSOe+AEd73CS0rGW+Jbf7mLmNdRCb2zMdQjeBHr2mZVq8uZM6GMyRY/LPvVVK
x330koxkW/WLADH7e9KXUMqV1q5mVYD6Bt4tP2QaXvEaKmD7XMQLO7T7ILbOzoDf
fxs2pfoFYHTpjaFg6fXHQpHU3OEIwtGqaM+DbXIjEei1aiG+FTOlbu++LofWTQoo
YldGNX5pbr+d4CzR33/XO1yLcx/z93IXkTzB1hPomwVuMtrvCgWw3O6dj7Maj8KD
1Qh0eCYd8mklGUjqu/syzcaEFWz+s4sL5dBmqVgZHxolsWw3wgKdNXkSX2SIdx0O
+GobFlLEb7iGczyDGylK7RnCUq7co6w2fUop+I1vnufNCntpyo1fGhVlq40L3n7B
SsjAtVqEWKZXtNAdMyHxY1KrPHfuyLaTwIprcefXhuQ+gAD+QqfcL504sQERx9Yd
2IAkRLUmBsfRbu7AEzWD76RiumOMMBKAGzERU+/Fj6Y4iLtON5wKt5CILfGHn4A7
xrJJsGf4wY4OyZbsza7TIYDXSerTZ9qPZw1dmvrRPikYfNTNIavZ52XJ1PYsdnNy
W8gDdih5FE4rGe2EJgweF66mSwjDgJ+Ch3PahhrAK+DyyKPZljxjs/EAwRnSgb+6
puh9Yj1nqyzziwIDAQABMA0GCSqGSIb3DQEBBQUAA4IBAQBNeJG27JbVf87UznFw
D0ABhZcl4KhB3t04oCGY0D7DOEKtor0i8u/2KbP0fhx+g6dMtvHCOo0d/pR1rLRi
Jp+YUMkAQxw3gH5gA6/LFtns2lgLQBJ3RKtYQeyxW0gF5RW9RdGEfAEt2U8zZ8TM
ReNt4PRFw1EtImRLBTByDPYL5wiJvjdgcGbRQ1403+/QDbz63UgC4ntvVuET+hPs
Bv7ICRIV6+OY95zYyX2zXM+f7dMp2AC65XbC69jG+9qScjlfkrrSpu9r8QzFw6tL
a9fnAnnLhj3Nv3fbxIomsfCQu48S2giONFPhxEJ91g2hIzstzCQBjO6R06IWUEM3
VkBS
-----END CERTIFICATE-----
Certificate:
    Data:
        Version: 3 (0x2)
        Serial Number: 1 (0x1)
    Signature Algorithm: sha1WithRSAEncryption
        Issuer: C=PT, ST=LX, L=Lisbon, O=nghttp2, OU=nghttp2, CN=nghttp2
        Validity
            Not Before: Dec 15 15:06:21 2019 GMT
            Not After : Dec 14 15:06:21 2020 GMT
        Subject: C=PT, ST=LX, O=Bumbaklat, OU=nghttp2, CN=nghttp2
        Subject Public Key Info:
            Public Key Algorithm: rsaEncryption
                Public-Key: (2048 bit)
                Modulus:
                    00:c1:1e:49:7f:b8:7e:23:04:4e:59:02:75:15:9b:
                    ad:3f:0a:dd:36:a0:69:cc:40:23:3e:cb:02:af:34:
                    3b:15:f0:52:9a:95:09:23:06:ed:ef:ec:0d:27:f2:
                    e0:8a:b3:3a:67:f5:8f:8c:15:86:f0:a6:87:6a:be:
                    e7:52:d5:fe:f4:c4:fc:ee:78:7a:e8:f7:23:5a:25:
                    b5:14:65:6e:6e:79:33:2a:3d:d9:aa:cf:df:31:48:
                    c7:7d:a9:b0:36:83:ef:91:6d:73:84:82:02:1c:d0:
                    bb:8c:0f:9a:ed:34:3a:8b:b4:17:14:26:a0:d9:b8:
                    8c:a4:f9:ee:72:34:ea:ef:e9:f6:23:0b:67:44:6d:
                    dc:64:71:25:50:ae:3c:37:f8:c3:b5:bd:7e:e9:49:
                    11:19:69:dc:bd:5a:ba:b1:9b:9d:f2:ce:6b:b2:b5:
                    cd:ca:9b:a2:56:ee:ab:79:9e:a1:86:18:f8:4a:54:
                    32:33:5d:6a:69:be:cf:b5:12:f3:fd:26:cc:77:19:
                    08:33:d3:fd:6e:be:ec:b1:ce:03:0d:32:56:6d:03:
                    7f:7c:67:64:3f:b9:b6:b7:ea:97:80:89:cd:12:11:
                    d1:24:e2:09:82:dc:81:16:39:e8:35:19:8a:db:a4:
                    dd:7f:1f:c9:70:19:df:bf:03:b9:88:7f:c8:20:a7:
                    57:45
                Exponent: 65537 (0x10001)
        X509v3 extensions:
            X509v3 Basic Constraints: 
                CA:FALSE
            X509v3 Subject Alternative Name: 
                DNS:nghttp2, DNS:another, DNS:another2
            X509v3 Subject Key Identifier: 
                A7:48:14:0C:C7:98:26:7E:48:0B:BA:FB:AF:78:A3:E6:08:A1:5A:BE
    Signature Algorithm: sha1WithRSAEncryption
         bc:b3:e1:1d:50:ff:d5:b0:9d:b1:0f:74:71:a8:c1:52:c1:9e:
         f2:79:88:4b:30:4c:17:d1:88:f7:e9:0a:f9:4d:53:94:a5:8d:
         bc:30:35:ca:ca:24:3e:2b:02:d8:16:07:1c:f1:31:af:c5:db:
         94:e2:d8:32:09:6e:b3:28:e5:35:14:3e:60:8b:db:65:cd:f0:
         77:ec:7a:1f:0b:bb:a8:5e:bd:67:b3:16:5a:a3:b4:f6:fd:84:
         26:05:27:27:ad:0b:fa:20:96:c7:0a:66:84:d4:19:1f:c4:f9:
         12:82:0d:04:0d:f3:8a:90:f3:6a:2c:b1:aa:cd:f6:31:93:69:
         13:f2:ec:31:61:e4:93:26:98:57:74:f0:f7:fa:01:45:fa:42:
         65:8c:dd:72:e6:d5:3c:89:c8:ea:5f:26:f9:bf:ec:e2:8a:f7:
         01:1f:fd:1d:76:65:80:6d:99:b4:b1:2a:31:e1:52:91:c1:14:
         3a:d4:22:5a:d3:8b:7d:6d:4d:49:00:58:5a:db:5a:67:5a:5c:
         53:aa:14:b8:10:0e:e8:e9:8b:6e:c3:4a:d8:40:a8:89:4a:aa:
         95:bc:f3:d1:43:d9:d0:60:ad:f3:7c:e2:7a:6f:32:8a:48:f3:
         8b:a1:8a:53:69:f3:14:ac:00:d3:d9:b4:83:df:28:34:6f:99:
         0e:b2:c2:59
-----BEGIN CERTIFICATE-----
MIIDgTCCAmmgAwIBAgIBATANBgkqhkiG9w0BAQUFADBhMQswCQYDVQQGEwJQVDEL
MAkGA1UECAwCTFgxDzANBgNVBAcMBkxpc2JvbjEQMA4GA1UECgwHbmdodHRwMjEQ
MA4GA1UECwwHbmdodHRwMjEQMA4GA1UEAwwHbmdodHRwMjAeFw0xOTEyMTUxNTA2
MjFaFw0yMDEyMTQxNTA2MjFaMFIxCzAJBgNVBAYTAlBUMQswCQYDVQQIDAJMWDES
MBAGA1UECgwJQnVtYmFrbGF0MRAwDgYDVQQLDAduZ2h0dHAyMRAwDgYDVQQDDAdu
Z2h0dHAyMIIBIjANBgkqhkiG9w0BAQEFAAOCAQ8AMIIBCgKCAQEAwR5Jf7h+IwRO
WQJ1FZutPwrdNqBpzEAjPssCrzQ7FfBSmpUJIwbt7+wNJ/LgirM6Z/WPjBWG8KaH
ar7nUtX+9MT87nh66PcjWiW1FGVubnkzKj3Zqs/fMUjHfamwNoPvkW1zhIICHNC7
jA+a7TQ6i7QXFCag2biMpPnucjTq7+n2IwtnRG3cZHElUK48N/jDtb1+6UkRGWnc
vVq6sZud8s5rsrXNypuiVu6reZ6hhhj4SlQyM11qab7PtRLz/SbMdxkIM9P9br7s
sc4DDTJWbQN/fGdkP7m2t+qXgInNEhHRJOIJgtyBFjnoNRmK26Tdfx/JcBnfvwO5
iH/IIKdXRQIDAQABo1MwUTAJBgNVHRMEAjAAMCUGA1UdEQQeMByCB25naHR0cDKC
B2Fub3RoZXKCCGFub3RoZXIyMB0GA1UdDgQWBBSnSBQMx5gmfkgLuvuveKPmCKFa
vjANBgkqhkiG9w0BAQUFAAOCAQEAvLPhHVD/1bCdsQ90cajBUsGe8nmISzBMF9GI
9+kK+U1TlKWNvDA1ysokPisC2BYHHPExr8XblOLYMglusyjlNRQ+YIvbZc3wd+x6
Hwu7qF69Z7MWWqO09v2EJgUnJ60L+iCWxwpmhNQZH8T5EoINBA3zipDzaiyxqs32
MZNpE/LsMWHkkyaYV3Tw9/oBRfpCZYzdcubVPInI6l8m+b/s4or3AR/9HXZlgG2Z
tLEqMeFSkcEUOtQiWtOLfW1NSQBYWttaZ1pcU6oUuBAO6OmLbsNK2ECoiUqqlbzz
0UPZ0GCt83ziem8yikjzi6GKU2nzFKwA09m0g98oNG+ZDrLCWQ==
-----END CERTIFICATE-----
-----BEGIN CERTIFICATE-----
MIIDPjCCAiYCCQCp8Px254fXXjANBgkqhkiG9w0BAQsFADBhMQswCQYDVQQGEwJQ
VDELMAkGA1UECAwCTFgxDzANBgNVBAcMBkxpc2JvbjEQMA4GA1UECgwHbmdodHRw
MjEQMA4GA1UECwwHbmdodHRwMjEQMA4GA1UEAwwHbmdodHRwMjAeFw0xOTEyMTUx
NDA1MzVaFw0yMDAxMTQxNDA1MzVaMGExCzAJBgNVBAYTAlBUMQswCQYDVQQIDAJM
WDEPMA0GA1UEBwwGTGlzYm9uMRAwDgYDVQQKDAduZ2h0dHAyMRAwDgYDVQQLDAdu
Z2h0dHAyMRAwDgYDVQQDDAduZ2h0dHAyMIIBIjANBgkqhkiG9w0BAQEFAAOCAQ8A
MIIBCgKCAQEAwgs8euGDGpm5X7/xgFGzE0i+1m5NY2teqHSN2IdKMEYkEaFcogJW
FuOrDDOb9Yu+iPsIT2UMmBILE0KeZBcpgp4iQr2A0zE/6hMJ5FOwpjtGrRJ+T6xi
/wbpsQMlfWetF560t4eIqWnaRVU4MbzI26oCXS6I+hdJa77EVVv3p1XEuNrH0bwi
om490+eFf6EgTNvGMgmccLS5jxGsFWZlGYBNzjb5VefGe931duTaHFR925Bb3Lvb
9sJJ/ABq79rvlJlBVexABT2cu2idZ+E/62A9RFgbS4QD+L4+vjpIpYbA64HOJ5VZ
peTXbYicu04yWhgWh0nN6lzKvFub0gTcdQIDAQABMA0GCSqGSIb3DQEBCwUAA4IB
AQBVUUbbMp2vXjgQ931bvqKx0bPn3pBn+m3Ps0fYHtZJcLdz/DFOBtzqTzJhiFYt
JIl1jFZTVGEyMwPN7jcefpB0OJf/Yg2Jf7yP2AV92poVKk91N5oyn2WXHY/oT1Gh
euNoNy9KZYK5BMol/1ZXTKXCHSbwbfCD37HA0KQfJVejaZPs0FzlnAHRoQ3/B6HN
+P8V+GOgZIS9GNZvQXZlA1gikJT+WfWmi5c+dpThN1qI4I5CeXvmo8WqwbvTOxou
GC523JzPW0kDOgomtKy5wE98yNw4rNf2mz0SSjpMzShDdeW0B/5JDQYEopHJA4Hk
OG8UvgFywbvI980WPlUI7/ZX
-----END CERTIFICATE-----
