-----BEGIN CERTIFICATE-----
MIIEBjCCAe4CFBR3M721uJd4Y8gu/tsxwGy+Wr52MA0GCSqGSIb3DQEBCwUAMEEx
CzAJBgNVBAYTAlBUMQswCQYDVQQIDAJMWDESMBAGA1UECgwJQnVtYmFrbGF0MREw
DwYDVQQDDAhodHRweC1jYTAgFw0yMjAzMDQyMzQyMDJaGA8zMDAyMDUwNjIzNDIw
MlowPDELMAkGA1UEBhMCUFQxCzAJBgNVBAgMAkxYMRIwEAYDVQQKDAlCdW1iYWts
YXQxDDAKBgNVBAMMA2RvaDCCASIwDQYJKoZIhvcNAQEBBQADggEPADCCAQoCggEB
AMmRvTtRV6J75ZigTi5/xQdKEkv4ZHYyEjxfOJQodLsgh1pFbTmOaVvX16tAPM8p
IhQl2MPPoBaIHUpKMQnPcCnM7IjblvuS7MWBsZP0OvZ77NTCWY1G38hJ+XsknJYa
txv9IaHFWSKVC+SBKJImJIeqmMd59pgXlPTgR8vlDy77idf8p9DNYrFPpAYiS5Ux
qNB2mnqk9GF2BMR3nGMR9HOlk2IuXQEYcI0/UTSWk2nSfAQC/UdAGfeakKH0aM5j
9UdUYeqrgXaITVVmogpSNqawo0bYSjJ0aMDsaWzg+j9odw1CM5SEk3l5d1EyZDZN
/IUVIGLJDYHDT939N8F6o08CAwEAATANBgkqhkiG9w0BAQsFAAOCAgEAN4vEZ+lF
QWHpqboDTO5TOmfGtchkQGurIz28dntvyhYcRIv5jhM2y3Kr7qojfaUuXcpqiZnE
2kDUahFdvdGQdcTTZUpN33xgNYS6/zO3eaDitAsdH/AJ/h1zCOfqXgu/knjPe0K+
fUMiziZf9BRGY3cMa2Ts8pdj1LiSpYuNurFfJrsUX6v3GFNL++Vr/ijiNPxMJmTj
uX1E0W8MFnvmnyqohApcDz5RTXn1HTYQxJ/V4Lga4DWQQgPXgXeytEHSkvG0Vv3l
9OqW1vHYMA+plwVvPVdShlPJFOr91tPyfrnRWH0NeiVQIrbgF8I5BLXnv8tJm4Vb
regLZ2qd8WsCbm30pz+52uben4rwvT6hgDgK8zAYzmsWP0zi0WLoHu85YzNBMmIR
bGHMjMP3w/yOI2pqmzVeEr9jO+9uiKCSd/8KzUwPU7I+T47IPilAbFXR3u4PE285
TXGrAGo4Ft5Lc6nmm67ki6kcXHhGnfQzPEAFr4R45iph3M/+NSw3tb7DGN7QqcGM
BxTNiYv9eKBOaMIQvNCJ8Jhor//FdDfr/jhgrxZ11iQnoDFb5f0I/TwplITJI5ZM
wjMbGHBUB+vspGz5Dh12AnhXO7H0moj6d1MRW0yMMfnBNLw4tLlocaZT+Q9e9tbP
YZUPzXAMnlwV14flr63neqoLQi9+fAwmoM4=
-----END CERTIFICATE-----
Certificate:
    Data:
        Version: 3 (0x2)
        Serial Number: 1 (0x1)
        Signature Algorithm: sha256WithRSAEncryption
        Issuer: C=PT, ST=LX, O=Bumbaklat, CN=httpx-ca
        Validity
            Not Before: Mar  4 23:42:02 2022 GMT
            Not After : Mar  4 23:42:02 2023 GMT
        Subject: C=PT, ST=LX, O=Bumbaklat, OU=nghttp2, CN=nghttp2
        Subject Public Key Info:
            Public Key Algorithm: rsaEncryption
                RSA Public-Key: (2048 bit)
                Modulus:
                    00:e5:eb:ca:39:59:74:bc:ee:ff:21:37:73:b8:84:
                    95:55:40:18:0f:cc:75:4e:4c:7a:e7:ec:f3:c6:67:
                    c2:0b:5c:d7:a7:16:19:45:a2:96:dd:ac:db:9c:af:
                    13:e2:77:46:1c:ae:f2:91:9d:4f:89:4e:0f:78:da:
                    79:e9:bd:a4:32:d8:7f:aa:fe:2c:a9:3d:c9:6f:ef:
                    c3:dc:3b:be:23:de:33:ff:5a:73:9e:50:db:5c:71:
                    5a:55:75:a8:2b:0b:90:50:bd:8a:b6:f4:52:73:ce:
                    68:f5:b3:ba:d1:db:4c:97:15:ad:44:1b:4a:0a:ef:
                    de:32:f4:da:e0:cd:61:26:f6:87:2a:07:76:ac:ea:
                    7c:85:27:e8:8a:8e:fb:4d:eb:84:fa:57:2a:3b:e8:
                    ef:6c:20:f8:d6:e1:e4:37:95:13:d2:08:a1:af:32:
                    08:44:f2:1f:54:05:0e:1d:c3:56:4a:59:73:fc:56:
                    6a:8c:42:54:65:3f:3f:c0:e9:bb:39:4b:b9:e1:da:
                    30:9e:83:f6:98:12:59:ad:c8:97:c3:66:4c:de:9f:
                    62:61:b0:70:cd:02:1a:79:c0:49:3c:d0:47:0a:6b:
                    3f:79:7b:a7:3a:14:51:35:37:6d:8d:93:e7:21:c1:
                    f0:d3:6b:ba:82:22:72:4a:7e:6e:b3:98:73:f7:54:
                    33:dd
                Exponent: 65537 (0x10001)
        X509v3 extensions:
            X509v3 Basic Constraints: 
                CA:FALSE
            X509v3 Subject Alternative Name: 
                DNS:nghttp2, DNS:another, DNS:another2
            X509v3 Subject Key Identifier: 
                FB:A1:1F:8D:23:EF:EB:B1:7F:D1:91:2B:AE:F7:A6:D6:50:C9:D8:F7
    Signature Algorithm: sha256WithRSAEncryption
         72:a7:17:b0:43:d4:46:dd:0e:6d:09:73:88:51:95:f3:e7:82:
         3d:8e:52:e8:80:0f:8e:57:26:ba:00:32:ab:d8:48:54:ab:e9:
         df:3a:2c:90:03:52:15:d9:41:f1:07:bf:90:51:a8:bc:f0:85:
         03:7d:ef:e0:f4:d5:a2:12:73:6d:59:28:e6:f4:ae:d6:28:ae:
         8b:da:bd:91:cb:e1:bd:3f:db:c8:cc:7a:97:66:33:e8:84:18:
         f9:b6:4a:8d:d0:db:ac:08:d1:0f:b2:b7:eb:6d:a6:5c:b2:40:
         a3:60:02:da:c7:11:49:26:f8:41:73:34:f1:da:4e:e0:7b:51:
         06:b0:7f:b3:32:5e:ae:d1:7b:4b:96:71:e6:2d:c8:9f:b0:b5:
         02:0e:74:b6:1f:4f:fc:9a:9d:84:31:f7:49:b1:91:0e:79:1b:
         8a:20:73:26:ef:4a:42:3e:c0:e2:3f:3e:ab:5c:16:e3:b4:6e:
         66:3a:6d:f4:6a:ac:26:71:6e:90:7b:9d:ae:8b:e8:e6:44:39:
         7b:b6:b6:a8:62:ec:a0:79:1d:1a:b6:73:de:f1:f8:aa:09:db:
         7b:9c:f7:64:a2:50:f6:88:a0:a5:4e:bd:84:80:8e:ac:f9:d2:
         7c:a1:88:bb:9f:ee:31:df:f2:b7:98:59:9f:13:01:37:2b:07:
         ae:32:8f:d0:9c:e2:8c:d2:0a:33:8b:8f:29:54:e7:bb:8f:ec:
         00:df:0f:d6:2d:38:8d:6b:5e:3d:2d:9f:51:ba:17:ab:c0:2d:
         2e:55:aa:dd:57:8a:1a:60:60:78:71:63:f0:91:e7:5c:6d:16:
         37:5f:ab:e8:01:b7:94:b1:a4:97:60:2c:7e:68:76:1e:06:da:
         4e:9e:30:f5:a6:1d:08:19:59:37:1e:41:3b:04:d5:c9:b4:43:
         72:bd:a0:b3:04:a5:00:db:a6:17:63:a0:5a:41:2f:d8:64:ac:
         ff:7d:83:48:67:8e:df:d6:63:1e:e9:0f:3f:43:50:56:96:38:
         65:a0:c3:6d:60:39:c2:9f:9b:cb:21:57:2f:b1:02:88:91:8b:
         45:44:12:0f:a7:bf:af:aa:1a:37:9c:50:ef:92:f2:a1:3a:53:
         fd:6f:08:19:52:26:e3:4a:01:9a:32:66:ff:15:f1:21:e2:f7:
         2f:7d:28:85:64:af:cb:2f:52:b8:45:5a:8c:8a:e2:ee:77:81:
         0c:56:00:3c:fb:b5:36:93:a1:8b:34:9e:10:34:1c:2a:6b:d3:
         0f:33:7c:8c:40:9a:11:cb:d4:86:49:e3:cc:4f:1f:c7:0b:ac:
         96:c3:79:30:02:b3:ec:90:a4:37:96:fe:79:06:14:69:43:15:
         37:82:b9:26:19:4a:fd:a7
-----BEGIN CERTIFICATE-----
MIIEYTCCAkmgAwIBAgIBATANBgkqhkiG9w0BAQsFADBBMQswCQYDVQQGEwJQVDEL
MAkGA1UECAwCTFgxEjAQBgNVBAoMCUJ1bWJha2xhdDERMA8GA1UEAwwIaHR0cHgt
Y2EwHhcNMjIwMzA0MjM0MjAyWhcNMjMwMzA0MjM0MjAyWjBSMQswCQYDVQQGEwJQ
VDELMAkGA1UECAwCTFgxEjAQBgNVBAoMCUJ1bWJha2xhdDEQMA4GA1UECwwHbmdo
dHRwMjEQMA4GA1UEAwwHbmdodHRwMjCCASIwDQYJKoZIhvcNAQEBBQADggEPADCC
AQoCggEBAOXryjlZdLzu/yE3c7iElVVAGA/MdU5Meufs88Znwgtc16cWGUWilt2s
25yvE+J3Rhyu8pGdT4lOD3jaeem9pDLYf6r+LKk9yW/vw9w7viPeM/9ac55Q21xx
WlV1qCsLkFC9irb0UnPOaPWzutHbTJcVrUQbSgrv3jL02uDNYSb2hyoHdqzqfIUn
6IqO+03rhPpXKjvo72wg+Nbh5DeVE9IIoa8yCETyH1QFDh3DVkpZc/xWaoxCVGU/
P8DpuzlLueHaMJ6D9pgSWa3Il8NmTN6fYmGwcM0CGnnASTzQRwprP3l7pzoUUTU3
bY2T5yHB8NNruoIickp+brOYc/dUM90CAwEAAaNTMFEwCQYDVR0TBAIwADAlBgNV
HREEHjAcggduZ2h0dHAyggdhbm90aGVygghhbm90aGVyMjAdBgNVHQ4EFgQU+6Ef
jSPv67F/0ZErrvem1lDJ2PcwDQYJKoZIhvcNAQELBQADggIBAHKnF7BD1EbdDm0J
c4hRlfPngj2OUuiAD45XJroAMqvYSFSr6d86LJADUhXZQfEHv5BRqLzwhQN97+D0
1aISc21ZKOb0rtYorovavZHL4b0/28jMepdmM+iEGPm2So3Q26wI0Q+yt+ttplyy
QKNgAtrHEUkm+EFzNPHaTuB7UQawf7MyXq7Re0uWceYtyJ+wtQIOdLYfT/yanYQx
90mxkQ55G4ogcybvSkI+wOI/PqtcFuO0bmY6bfRqrCZxbpB7na6L6OZEOXu2tqhi
7KB5HRq2c97x+KoJ23uc92SiUPaIoKVOvYSAjqz50nyhiLuf7jHf8reYWZ8TATcr
B64yj9Cc4ozSCjOLjylU57uP7ADfD9YtOI1rXj0tn1G6F6vALS5Vqt1XihpgYHhx
Y/CR51xtFjdfq+gBt5SxpJdgLH5odh4G2k6eMPWmHQgZWTceQTsE1cm0Q3K9oLME
pQDbphdjoFpBL9hkrP99g0hnjt/WYx7pDz9DUFaWOGWgw21gOcKfm8shVy+xAoiR
i0VEEg+nv6+qGjecUO+S8qE6U/1vCBlSJuNKAZoyZv8V8SHi9y99KIVkr8svUrhF
WoyK4u53gQxWADz7tTaToYs0nhA0HCpr0w8zfIxAmhHL1IZJ48xPH8cLrJbDeTAC
s+yQpDeW/nkGFGlDFTeCuSYZSv2n
-----END CERTIFICATE-----
-----BEGIN CERTIFICATE-----
MIIFZTCCA02gAwIBAgIUMTzhR915qN4E/fborX+Gv5slJ60wDQYJKoZIhvcNAQEL
BQAwQTELMAkGA1UEBhMCUFQxCzAJBgNVBAgMAkxYMRIwEAYDVQQKDAlCdW1iYWts
YXQxETAPBgNVBAMMCGh0dHB4LWNhMCAXDTIyMDMwNDIzNDIwMloYDzMwMDIwNTA2
MjM0MjAyWjBBMQswCQYDVQQGEwJQVDELMAkGA1UECAwCTFgxEjAQBgNVBAoMCUJ1
bWJha2xhdDERMA8GA1UEAwwIaHR0cHgtY2EwggIiMA0GCSqGSIb3DQEBAQUAA4IC
DwAwggIKAoICAQDcBztiStq8LIOwR5QFk2tCxp23XD/+A0vEBcCArRtoVe1Rqvj4
kVjDN2y8mzV7ZWPjyIzf/9EkAtujPorZ0YkMBlG8SlVa66/3zvKj4+YP5EgeZqYa
TRY/XVSoBnCrVsLEMetkxTLX6fhBS3Eq5MwRcks01pi7YljPw+eqN5uqD9B3iYKj
7T1Ad5SGstamJoXORaXZ4pG2FjVWtsP6ap0B3WimHUSK0h7+onjvr1bMwdztwiCI
NTNUjIHiEC7CtkrHV8xlvW0OEbk9D0l14tTepSwnK+jCQz7iqUCkf0wROOqG74/G
sodA3KvWLGEA3b+EA0Ev52svjYYvWiUjo7vFgOwMxf5GcYfPNvZHebu7AU6ZIzIa
ot3hZ97NxHtHBESjfIcvbKxP5izJswUXy/Mli4ZSxaVcsZ3z+fXUBVjTQKrSfWkJ
nhZA7EK4gDU/BMYe+/pmpgOqLgYhEIfYzuFG1JdNFW1WutKMY/4U/nikSPP9NtOj
SLQgorX4jVYv8KHw2JgIEkZJMDlxQ8oWEBQFWzmLsnqXhMa+ZV6/Ydy00LuBrpA2
Eoi2ZKFk05wafpXj7wO4+hjYrbp7EL6OFZknKL+N0TUfX3tfRbF2zsBg/Z8sbFm3
Mh4mA5M0qpwlzamqX1MhAr+2Y0SsHblj8bpMrPSNstPXLnRqXvqVC+8F7wIDAQAB
o1MwUTAdBgNVHQ4EFgQU+CPa4FU2/Tw6YQJ9zTNpnj1ivhAwHwYDVR0jBBgwFoAU
+CPa4FU2/Tw6YQJ9zTNpnj1ivhAwDwYDVR0TAQH/BAUwAwEB/zANBgkqhkiG9w0B
AQsFAAOCAgEAjLYa1LI3UYum7LC4g44sg+8Yk+nXKsXHGQZ64SoK7CWtf1zCil5W
TTbFeykOJEd/l3B53Bht/2WtfcEPqlREFsp7+H5Gqq/Vlx9Jzw/0ucRnAIkGpD7N
9LaKt+tnvvg+kdA4VfqhXku+otnFwWIpMYzOJNGH3pGK26tmRHSa14G3R7Tc//UY
nLgIEBgrScFX+mLkAugVrnTDwT2Qyiqw/GqJUe/PFesR981LOlRDbScuxtP2/LqF
To08VU5lz8iNEcpN9j8flNhBvKLi41nAqcRDaG9NJByW0I+EFlQpuCcqoPzzN16t
8oTJg/kNGSZn7jM132Utzu2hTxWitympvDab9Xo836Mv9ZnIm/8spN0EDkowprCl
Z9dpb4FDS2AgDREUt7mnnwUU8gS0TfTOHrcyz22mgdaLWjgyvj2dc2i4vBXnJaHE
jaFeNr51eCT5ymXhU/dE7Ax9yyLnU2mi9JXZdvBC4TBNMqIHqAfS5V+XpxLk3dpG
OCVy/xqjQvippenUBj91pNyOpSVMC/4lncOyCi3ImqmXXiq8XjhkB1JIgpFCg81F
Q+oNn2Xp0qngghKHbSKeYe83/r3IPC7vP2YS6ycSPPv6qllk3LJ0yQMVkkJ/TbOm
EYj2a5wv53uW6sMzfglXelugu2PG44wO8Frhr6XQGmOhcYIHx/KtEBU=
-----END CERTIFICATE-----
