-----BEGIN CERTIFICATE-----
MIIETzCCAjegAwIBAgIUVlovEXLMDknV6Lpe5Bbt3HZLxFYwDQYJKoZIhvcNAQEL
BQAwQTELMAkGA1UEBhMCUFQxCzAJBgNVBAgMAkxYMRIwEAYDVQQKDAlCdW1iYWts
YXQxETAPBgNVBAMMCGh0dHB4LWNhMCAXDTI1MTAwMzA4MjczNVoYDzMwMDUxMjA1
MDgyNzM1WjA8MQswCQYDVQQGEwJQVDELMAkGA1UECAwCTFgxEjAQBgNVBAoMCUJ1
bWJha2xhdDEMMAoGA1UEAwwDZG9oMIIBIjANBgkqhkiG9w0BAQEFAAOCAQ8AMIIB
CgKCAQEAlyDIheOLoX9lUNiuP3xajpoL47r5EPyOJ5rfVr2nvJBVKWsUgDy2OCiq
vg0HbnjEgugsxQEOij1hztcKmMGcpaTm3fTr9hxlS+wFjZ0w7jpXSHMLUSsUVIw2
kzZmbzKBl6Fvg5XPongyGHreO0MKA9f8J1OOb0fFVrfKRoUyoaIgj2OTF39z0FGG
4l+My8QCi+sx3pStRcKvTxypwzzbgFx+KkLO9sS4nlHTMg4anXPgK9WHoHc7MLFi
999fmQHvwAarJQR1cdUjkwAgPfU0phH/LYMvCXtzfRgDD4n4SDH1bnzZS4dAzPVf
hLOOfAsuvNjkbVULM7LsjwWOLYjVCwIDAQABo0IwQDAdBgNVHQ4EFgQU6SE/cjNN
JJ2rJ+5TnRAHlWBdzuQwHwYDVR0jBBgwFoAUGeg1ju3AWILIzgsv1l48h5w7j0ww
DQYJKoZIhvcNAQELBQADggIBAEdUAu10Fl/ZJMyMhf3CVna+xY93LsvtCbR2xTDT
8qYJ/4JD83C/DSM2MWjxR99aSuPOtEiz/jGty4PO/KqlywgXitxTBr/1egMkKfDD
Aaxg155y5ZQHVNnn+Enr3rYHLBTsUrUdMUjfDo92aiaw6FJ0FWZocSAudTQntd0E
Dn0ekoCQrB9RWVd1lwwyswaPAMKzoyUXY1oXB14i9XKPbRZLyUYnKOUl4A0w762Q
7QIBMQkFAOnjx0R8bBArbHm5oA23pTST/IMIWiakWYWh+F7xJj4RV0jzbvBtwJSm
cRYo3suF6GBhZy2WwDFWLpCRO5iGtY1tenJ3eECxl7EzdMSqQAvJP9u7aARHvM4b
qRAoJ3+xkotM0KU2iJESlKn5fvYLg0lHmijN/UHz2FJnFJ/RE/In++m8AInqcNzt
ZzbrKUW1uAlIMApKP6g4zDX0+cOQobAAAm3RxuQdzEkHRDdP6JoyN0D65Zib8zdE
bIG3kL6Aq31nTXI38p//h4daP0wklYrnAqPGHKfp4wxxCt0rxCtUC+dYUxcp6B/x
tr7IWgyZ+lTHpZeVv88snCpP8D+7K6qoF+yGraBoK+k96TjEOlU+6iGlK49YsoG/
eHNH/7VUCztfs/U5DELEkCMhcu68xB5/UCo5XxAl5ykrN6nXJ4NcFuNZyTjxBngX
fTKl
-----END CERTIFICATE-----
Certificate:
    Data:
        Version: 3 (0x2)
        Serial Number: 2 (0x2)
        Signature Algorithm: sha256WithRSAEncryption
        Issuer: C=PT, ST=LX, O=Bumbaklat, CN=httpx-ca
        Validity
            Not Before: Oct  3 08:27:35 2025 GMT
            Not After : Oct  3 08:27:35 2026 GMT
        Subject: C=PT, ST=LX, O=Bumbaklat, CN=localhost-server
        Subject Public Key Info:
            Public Key Algorithm: rsaEncryption
                Public-Key: (2048 bit)
                Modulus:
                    00:99:96:5d:3c:35:7f:c3:ab:bb:44:c1:c2:e3:7f:
                    ec:b6:b6:b7:3f:22:a4:d4:39:41:11:76:3d:24:3c:
                    b0:e2:db:c9:c6:ab:fc:c7:cc:37:b7:38:1e:a7:75:
                    a9:3b:d5:52:44:cf:db:79:94:ce:e9:f3:d3:8a:4b:
                    42:c6:33:98:21:cd:f5:76:39:7c:12:66:6b:8c:2a:
                    e7:0e:55:d4:a1:2a:33:6a:29:00:b6:12:47:e4:d7:
                    21:6d:9e:ad:06:56:10:d5:d0:3b:b9:1f:8b:62:00:
                    33:a7:46:72:90:30:b5:55:3c:5e:1f:fa:8d:2d:e8:
                    2f:e5:1e:b0:28:2b:82:04:51:12:72:1e:40:82:cf:
                    89:e3:1a:3c:ce:3a:35:dd:06:0f:c2:df:85:eb:43:
                    ac:08:74:cf:5e:5b:98:03:0a:48:b3:d7:79:d7:33:
                    34:c7:7f:c3:37:37:66:9c:1b:e0:d6:a6:77:1a:1b:
                    7a:36:92:2b:26:ad:02:3b:07:8e:c1:15:e6:84:be:
                    86:57:51:a2:ce:b6:46:f1:8c:04:96:96:c9:f2:e2:
                    7f:1d:2f:a8:18:4c:32:2b:ab:42:52:ba:cb:f4:bd:
                    3d:27:b6:0f:36:06:99:f5:88:d8:a1:f8:96:20:dd:
                    50:37:ca:90:c0:15:11:0e:88:98:b6:8c:76:3c:26:
                    41:8d
                Exponent: 65537 (0x10001)
        X509v3 extensions:
            X509v3 Basic Constraints: 
                CA:FALSE
            X509v3 Subject Alternative Name: 
                DNS:localhost, IP Address:127.0.0.1, IP Address:0:0:0:0:0:0:0:1
            X509v3 Subject Key Identifier: 
                BB:55:5E:34:B2:33:B6:2B:E9:B4:BD:F3:75:28:95:66:D2:A0:3E:63
            X509v3 Authority Key Identifier: 
                19:E8:35:8E:ED:C0:58:82:C8:CE:0B:2F:D6:5E:3C:87:9C:3B:8F:4C
    Signature Algorithm: sha256WithRSAEncryption
    Signature Value:
        c6:0e:fb:e3:3a:8a:c8:c9:29:a5:fe:b8:5d:ce:8b:6e:69:23:
        04:7e:cf:08:1b:4a:59:c4:2c:df:c8:91:1f:fa:4a:a5:83:e9:
        34:d0:54:6f:47:cf:9d:32:d2:e2:e4:25:97:4d:67:b2:03:b6:
        94:54:84:b1:ac:4f:62:87:95:e8:ec:e2:ad:f0:53:ce:cc:a9:
        20:c9:bf:d2:ac:4d:a9:8a:ef:02:5c:16:26:fe:40:63:45:64:
        dc:3e:4b:d0:8a:51:6a:6d:25:c3:9e:13:87:d7:56:52:a3:b4:
        e5:1d:cb:ef:53:fd:b3:25:5b:e6:9f:02:64:44:04:72:96:98:
        6f:71:1d:59:0a:c7:a3:8f:90:fe:f3:7c:9b:4b:19:f2:e6:8c:
        9f:5f:42:4c:b7:5f:35:84:56:03:db:2d:da:6f:13:8d:dc:26:
        a7:f3:87:15:cc:b7:51:4c:df:a7:8d:1e:71:1a:8e:bd:04:65:
        12:b1:fa:ff:0b:9b:5e:35:50:cb:80:c5:eb:f0:61:70:eb:b2:
        ad:72:94:ab:b4:16:24:7a:78:1c:98:5c:58:67:b7:ce:6b:3c:
        ee:ff:e6:be:82:82:b3:8a:25:fb:82:60:16:db:ee:86:b5:3a:
        dc:dd:79:be:e9:90:be:3d:1c:27:f3:3e:2f:4c:f5:35:4e:aa:
        10:23:c6:9d:31:1a:2f:01:97:25:8a:ad:77:82:d3:90:34:f7:
        22:f5:88:35:b7:2f:fa:45:11:99:26:27:4d:20:66:14:d3:a4:
        8f:9f:28:e4:35:33:d2:db:67:ad:9c:18:da:97:aa:bf:c2:0a:
        98:e8:b6:26:01:26:df:95:3d:57:b9:7f:6f:cb:2c:d0:70:41:
        71:94:61:90:ba:e2:1a:a3:92:f2:07:25:6e:50:6d:fe:3a:d8:
        a8:ec:7f:15:4f:40:a0:66:e8:df:92:ca:8c:ad:5f:96:a0:4a:
        d7:b7:4a:59:cc:79:13:78:59:06:18:62:4c:bd:1c:90:5d:ff:
        2d:59:91:f4:51:c3:25:5b:01:00:54:3d:48:7b:a1:b8:76:39:
        65:e4:bd:c7:80:d1:d7:3a:ef:24:d1:4b:0e:ef:9f:fa:e4:23:
        80:58:fd:50:fd:07:ca:d8:30:02:d2:c3:9e:a4:3e:ae:87:28:
        c1:ce:36:53:ab:0d:e7:00:ef:0d:d1:a4:b5:72:fa:d6:8d:d9:
        4a:b0:8a:57:67:4d:18:08:b1:d0:1c:58:93:52:73:ea:23:e7:
        9f:ef:c5:a6:8a:f6:69:c1:8b:96:9b:b1:a9:d3:3e:fd:c5:5e:
        83:56:8d:f8:60:93:95:db:a3:f9:14:a5:fa:3d:d5:c4:ef:fa:
        49:3d:cc:e2:3b:58:83:f2
-----BEGIN CERTIFICATE-----
MIIEgDCCAmigAwIBAgIBAjANBgkqhkiG9w0BAQsFADBBMQswCQYDVQQGEwJQVDEL
MAkGA1UECAwCTFgxEjAQBgNVBAoMCUJ1bWJha2xhdDERMA8GA1UEAwwIaHR0cHgt
Y2EwHhcNMjUxMDAzMDgyNzM1WhcNMjYxMDAzMDgyNzM1WjBJMQswCQYDVQQGEwJQ
VDELMAkGA1UECAwCTFgxEjAQBgNVBAoMCUJ1bWJha2xhdDEZMBcGA1UEAwwQbG9j
YWxob3N0LXNlcnZlcjCCASIwDQYJKoZIhvcNAQEBBQADggEPADCCAQoCggEBAJmW
XTw1f8Oru0TBwuN/7La2tz8ipNQ5QRF2PSQ8sOLbycar/MfMN7c4Hqd1qTvVUkTP
23mUzunz04pLQsYzmCHN9XY5fBJma4wq5w5V1KEqM2opALYSR+TXIW2erQZWENXQ
O7kfi2IAM6dGcpAwtVU8Xh/6jS3oL+UesCgrggRREnIeQILPieMaPM46Nd0GD8Lf
hetDrAh0z15bmAMKSLPXedczNMd/wzc3Zpwb4NamdxobejaSKyatAjsHjsEV5oS+
hldRos62RvGMBJaWyfLifx0vqBhMMiurQlK6y/S9PSe2DzYGmfWI2KH4liDdUDfK
kMAVEQ6ImLaMdjwmQY0CAwEAAaN7MHkwCQYDVR0TBAIwADAsBgNVHREEJTAjggls
b2NhbGhvc3SHBH8AAAGHEAAAAAAAAAAAAAAAAAAAAAEwHQYDVR0OBBYEFLtVXjSy
M7Yr6bS983UolWbSoD5jMB8GA1UdIwQYMBaAFBnoNY7twFiCyM4LL9ZePIecO49M
MA0GCSqGSIb3DQEBCwUAA4ICAQDGDvvjOorIySml/rhdzotuaSMEfs8IG0pZxCzf
yJEf+kqlg+k00FRvR8+dMtLi5CWXTWeyA7aUVISxrE9ih5Xo7OKt8FPOzKkgyb/S
rE2piu8CXBYm/kBjRWTcPkvQilFqbSXDnhOH11ZSo7TlHcvvU/2zJVvmnwJkRARy
lphvcR1ZCsejj5D+83ybSxny5oyfX0JMt181hFYD2y3abxON3Can84cVzLdRTN+n
jR5xGo69BGUSsfr/C5teNVDLgMXr8GFw67KtcpSrtBYkengcmFxYZ7fOazzu/+a+
goKziiX7gmAW2+6GtTrc3Xm+6ZC+PRwn8z4vTPU1TqoQI8adMRovAZcliq13gtOQ
NPci9Yg1ty/6RRGZJidNIGYU06SPnyjkNTPS22etnBjal6q/wgqY6LYmASbflT1X
uX9vyyzQcEFxlGGQuuIao5LyByVuUG3+Otio7H8VT0CgZujfksqMrV+WoErXt0pZ
zHkTeFkGGGJMvRyQXf8tWZH0UcMlWwEAVD1Ie6G4djll5L3HgNHXOu8k0UsO75/6
5COAWP1Q/QfK2DAC0sOepD6uhyjBzjZTqw3nAO8N0aS1cvrWjdlKsIpXZ00YCLHQ
HFiTUnPqI+ef78WmivZpwYuWm7Gp0z79xV6DVo34YJOV26P5FKX6PdXE7/pJPczi
O1iD8g==
-----END CERTIFICATE-----
Certificate:
    Data:
        Version: 3 (0x2)
        Serial Number: 1 (0x1)
        Signature Algorithm: sha256WithRSAEncryption
        Issuer: C=PT, ST=LX, O=Bumbaklat, CN=httpx-ca
        Validity
            Not Before: Oct  3 08:27:35 2025 GMT
            Not After : Oct  3 08:27:35 2026 GMT
        Subject: C=PT, ST=LX, O=Bumbaklat, OU=nghttp2, CN=nghttp2
        Subject Public Key Info:
            Public Key Algorithm: rsaEncryption
                Public-Key: (2048 bit)
                Modulus:
                    00:bc:3c:da:e5:26:6a:98:c6:c4:91:d1:b1:4c:06:
                    8e:6e:49:e1:37:3d:2e:a2:32:91:9f:2e:4d:d3:22:
                    f9:7d:b9:54:4f:4c:5b:6e:04:45:13:00:32:c6:78:
                    17:71:eb:67:2e:22:74:3c:17:f1:9f:05:ea:23:95:
                    99:45:43:d6:26:1b:3f:b7:02:3d:fe:35:a6:91:a6:
                    ee:3f:87:23:e5:51:c1:09:a6:65:8d:91:cf:17:5b:
                    bb:d1:f3:07:29:a6:6c:1c:ab:85:46:a4:7f:72:0d:
                    b9:9b:e0:d6:14:e4:47:e9:5e:a0:47:30:d2:a8:24:
                    d1:96:dc:f4:91:3f:23:59:58:7f:77:10:26:a3:48:
                    56:8c:b0:bf:7a:72:16:70:1e:05:e8:32:ac:f0:0d:
                    5b:86:b2:41:30:c6:58:9c:a8:47:fb:b6:43:45:cb:
                    ec:b0:21:e6:db:97:83:16:2f:70:e7:c3:7d:f8:f6:
                    4c:79:74:89:c0:a6:55:40:f5:c4:ec:24:93:3c:54:
                    4c:9b:a5:94:19:d8:22:00:3f:71:8f:6a:e7:16:e3:
                    d4:af:c0:e5:91:a2:7b:ff:ca:94:be:53:ca:24:cb:
                    ff:09:ba:cf:b1:7b:b3:30:38:2b:e5:50:d1:e8:79:
                    3e:db:d0:05:3a:7d:33:65:3f:df:9d:09:5a:21:98:
                    23:dd
                Exponent: 65537 (0x10001)
        X509v3 extensions:
            X509v3 Basic Constraints: 
                CA:FALSE
            X509v3 Subject Alternative Name: 
                DNS:nghttp2, DNS:another, DNS:another2
            X509v3 Subject Key Identifier: 
                40:9B:4B:1A:42:2C:5B:F5:0E:1E:51:BB:0F:EE:BC:B2:A8:C7:F5:9A
            X509v3 Authority Key Identifier: 
                19:E8:35:8E:ED:C0:58:82:C8:CE:0B:2F:D6:5E:3C:87:9C:3B:8F:4C
    Signature Algorithm: sha256WithRSAEncryption
    Signature Value:
        54:40:76:eb:d3:aa:9a:27:11:5d:19:74:18:39:c7:f4:d9:4e:
        af:b0:7e:9c:3b:fe:f1:c1:20:1b:d3:48:05:e1:72:1e:df:01:
        97:19:c0:af:04:45:d6:09:a2:83:b8:e1:89:9f:3e:47:69:a8:
        8d:28:9c:90:4f:96:1e:ad:14:74:21:6c:f1:71:56:83:26:a6:
        16:96:a5:c1:a6:84:c6:f6:8e:c4:93:af:e4:69:63:de:31:5e:
        90:f2:43:e6:c0:a8:a0:98:5b:50:54:ff:5b:5b:37:97:b8:2a:
        08:3e:5c:32:af:cf:e6:11:19:0d:4b:4e:08:f0:99:11:a7:6a:
        09:2a:92:ba:1a:4e:12:e6:0e:38:56:63:cf:df:d0:0e:cf:2f:
        cd:d8:2e:b3:c0:a5:78:ea:f4:d1:16:71:60:92:e6:da:00:f4:
        7a:9f:6b:f0:3c:ca:c9:82:c6:8e:a7:e4:4f:39:ee:be:7c:f3:
        89:d3:dc:11:4e:af:a1:39:bd:52:bc:58:a1:86:64:fb:fb:53:
        75:42:c6:27:de:b1:ef:8f:ae:28:9a:d7:f2:57:4b:8e:5d:67:
        5b:79:73:6f:fa:c9:c4:94:f5:54:bd:06:25:19:50:df:d4:30:
        c0:58:cf:b8:03:08:3b:16:bd:9a:55:91:30:7b:61:f5:a6:3f:
        ad:06:ac:6b:64:0c:09:23:e1:9a:0f:03:3f:eb:d9:2f:d3:50:
        80:89:41:cb:36:f8:8f:63:30:9e:cf:a8:54:1e:24:89:d5:db:
        ad:7f:de:68:6d:69:66:7e:f6:de:f7:12:e1:1c:f9:1b:3f:43:
        da:98:1b:20:21:7c:81:5d:5d:80:9f:8b:e7:ea:c5:d6:81:9d:
        6a:e2:d3:d6:24:99:19:9f:d1:da:5c:a1:bd:72:a6:7e:f1:cf:
        d7:f1:87:41:64:46:6d:47:29:5e:76:c1:60:b9:2d:39:0f:fa:
        cd:51:c1:11:15:56:07:04:23:b4:a4:81:f0:eb:dc:92:84:48:
        90:fc:4b:09:ab:25:f8:b7:c5:8a:65:f0:34:54:a5:0e:d1:8c:
        2d:9e:d3:6a:0c:ef:f6:ca:af:72:74:f0:b1:9b:ae:20:6e:e5:
        54:fc:ca:23:29:2d:48:b2:92:05:70:90:7d:d2:c8:53:e2:22:
        c9:2e:b4:5a:ec:3a:5c:35:46:54:ff:60:09:33:8c:7c:c4:87:
        27:c3:94:72:f0:46:10:42:b8:68:33:13:62:26:9c:46:d1:f8:
        c7:5b:97:fe:06:0f:db:25:0d:3c:f1:21:27:7a:d9:f2:52:e2:
        9a:17:c2:c2:64:5b:db:9a:58:73:96:32:cd:19:16:0a:7b:36:
        8b:6f:a1:b0:f5:79:7c:e5
-----BEGIN CERTIFICATE-----
MIIEgjCCAmqgAwIBAgIBATANBgkqhkiG9w0BAQsFADBBMQswCQYDVQQGEwJQVDEL
MAkGA1UECAwCTFgxEjAQBgNVBAoMCUJ1bWJha2xhdDERMA8GA1UEAwwIaHR0cHgt
Y2EwHhcNMjUxMDAzMDgyNzM1WhcNMjYxMDAzMDgyNzM1WjBSMQswCQYDVQQGEwJQ
VDELMAkGA1UECAwCTFgxEjAQBgNVBAoMCUJ1bWJha2xhdDEQMA4GA1UECwwHbmdo
dHRwMjEQMA4GA1UEAwwHbmdodHRwMjCCASIwDQYJKoZIhvcNAQEBBQADggEPADCC
AQoCggEBALw82uUmapjGxJHRsUwGjm5J4Tc9LqIykZ8uTdMi+X25VE9MW24ERRMA
MsZ4F3HrZy4idDwX8Z8F6iOVmUVD1iYbP7cCPf41ppGm7j+HI+VRwQmmZY2Rzxdb
u9HzBymmbByrhUakf3INuZvg1hTkR+leoEcw0qgk0Zbc9JE/I1lYf3cQJqNIVoyw
v3pyFnAeBegyrPANW4ayQTDGWJyoR/u2Q0XL7LAh5tuXgxYvcOfDffj2THl0icCm
VUD1xOwkkzxUTJullBnYIgA/cY9q5xbj1K/A5ZGie//KlL5TyiTL/wm6z7F7szA4
K+VQ0eh5PtvQBTp9M2U/350JWiGYI90CAwEAAaN0MHIwCQYDVR0TBAIwADAlBgNV
HREEHjAcggduZ2h0dHAyggdhbm90aGVygghhbm90aGVyMjAdBgNVHQ4EFgQUQJtL
GkIsW/UOHlG7D+68sqjH9ZowHwYDVR0jBBgwFoAUGeg1ju3AWILIzgsv1l48h5w7
j0wwDQYJKoZIhvcNAQELBQADggIBAFRAduvTqponEV0ZdBg5x/TZTq+wfpw7/vHB
IBvTSAXhch7fAZcZwK8ERdYJooO44YmfPkdpqI0onJBPlh6tFHQhbPFxVoMmphaW
pcGmhMb2jsSTr+RpY94xXpDyQ+bAqKCYW1BU/1tbN5e4Kgg+XDKvz+YRGQ1LTgjw
mRGnagkqkroaThLmDjhWY8/f0A7PL83YLrPApXjq9NEWcWCS5toA9Hqfa/A8ysmC
xo6n5E857r5884nT3BFOr6E5vVK8WKGGZPv7U3VCxifese+Priia1/JXS45dZ1t5
c2/6ycSU9VS9BiUZUN/UMMBYz7gDCDsWvZpVkTB7YfWmP60GrGtkDAkj4ZoPAz/r
2S/TUICJQcs2+I9jMJ7PqFQeJInV261/3mhtaWZ+9t73EuEc+Rs/Q9qYGyAhfIFd
XYCfi+fqxdaBnWri09YkmRmf0dpcob1ypn7xz9fxh0FkRm1HKV52wWC5LTkP+s1R
wREVVgcEI7SkgfDr3JKESJD8SwmrJfi3xYpl8DRUpQ7RjC2e02oM7/bKr3J08LGb
riBu5VT8yiMpLUiykgVwkH3SyFPiIskutFrsOlw1RlT/YAkzjHzEhyfDlHLwRhBC
uGgzE2ImnEbR+Mdbl/4GD9slDTzxISd62fJS4poXwsJkW9uaWHOWMs0ZFgp7Notv
obD1eXzl
-----END CERTIFICATE-----
-----BEGIN CERTIFICATE-----
MIIFZTCCA02gAwIBAgIUJZykBYBiMr54Z7hnmppnYQBN5okwDQYJKoZIhvcNAQEL
BQAwQTELMAkGA1UEBhMCUFQxCzAJBgNVBAgMAkxYMRIwEAYDVQQKDAlCdW1iYWts
YXQxETAPBgNVBAMMCGh0dHB4LWNhMCAXDTI1MTAwMzA4MjczNVoYDzMwMDUxMjA1
MDgyNzM1WjBBMQswCQYDVQQGEwJQVDELMAkGA1UECAwCTFgxEjAQBgNVBAoMCUJ1
bWJha2xhdDERMA8GA1UEAwwIaHR0cHgtY2EwggIiMA0GCSqGSIb3DQEBAQUAA4IC
DwAwggIKAoICAQDUiQTg6WDN9QBraAZ6p2TDzXaDbzi401MIeIMbSaO66Hf6rn+N
AWaQiH6ncBdzQhvuiqFxhADNnnGEpSJexm9usQJemqAvDyMIl0sk400dsE1E3b86
PXaSITrQ/NqXMReVIo1IJsxa+oAxhX+tAv1eK1HhEfQz2FmDST2rjgU6d71UeGEi
Z60HwdzlYkalucStnix3yCfSSLZl1uCMdSnSqXIsmWOM/GFwpN7c1bKyOVvTROJj
kG9SbwfSSNNE7VQSFxXrOb0NDNArXU07HnRAeYLyhQjWRqToXvARWgvww4iaBM6F
NjwYdKqv1uKzPCH+R6oLr/e5TSYaIAJzvDAQN3mtOA5b6u/jkG5+SKArWr8OXm85
8jqXdKppo/Wgrxfnxq/D9CXBOU7tMDLIF6fCzw9RQIuIwThhEoqdmAG19NkYqTCm
KZsZTobNhE+ZxjCZfPJ+4/+7eJXEkon3/xdBQ/qbtTmXwYy1rcjfIo/+HO1fh95d
S82dBBVe83fegqksIg3TLtUHfh0sNX/YseN5QAelVjpLU64LegswTrT1PNBIU3IU
1aTNBpekebVtvlcMEXu7TBw/NptSzrRNXiAGpGtKu0Ska2msGKG9pA838OALUS2g
MJTyb9RipYzeS6+YOLkbLoPRGClNa/s5rHF9YIj+GD6AuH/bdzti1WNeiQIDAQAB
o1MwUTAdBgNVHQ4EFgQUGeg1ju3AWILIzgsv1l48h5w7j0wwHwYDVR0jBBgwFoAU
Geg1ju3AWILIzgsv1l48h5w7j0wwDwYDVR0TAQH/BAUwAwEB/zANBgkqhkiG9w0B
AQsFAAOCAgEAhIilIaB8NLUaT2FL8RBoNJWKf4ZkJFwzxZFIP4Z3l9LsuUE7g5iq
qki9gghPrVvC6EqmBGZGSWEen59QVBrEQTcDeEPBWtRQ9wMssZemJPl+iWEhTb8C
DwL7u5q9tp1Npa6DSR4Q7qN6wB5TG6EgKOlV0GidKPOP9NI2B72uLVtFy5mUYBd7
PlSxF+pVjKQhitAtZAYXmKgm4dtaKX+rcYBLVAbLKJhsEWI6j8c5bpugeiUGX+ra
zjN5ChsyiUWc38O4vBsY+7hWtQyY/hMagU8gygxI8u/pXTafUCd5wqVhrZlL7wO/
G7kJ+rxe00thWM+lzykioD3acZ+vtaaETBIi6Rww6sITK6rHsd6oKvkJJdqLnc0T
tODuhWlIMHuI3MfbyvybGyH+iBza0dJsiohAqHvEV3Ap9Rd4v8Th85lGwzbVeQe+
6vkhvf0ixTgRtkiIYbpMSbBIJqrou46JxTFH8rulBK8ZviIWjiZc7dF4/JqBgi+7
oi44ubY9OaDdyaQFFYl32A0WQar3uzM1LDr8Sv4jwmfyKyg5Zi5E7D1RaCRi13jh
4Q4hqk/jZhSGubLjZDl6pJ8VpGFOx7QlClTTvv0i20RLJA1UiP9d/9iM68F9zrmJ
HF/zgARn9nsn8xP3cS23A0RRH/qBnFUVGi7R8If/QrjBmy2SSjBMW8c=
-----END CERTIFICATE-----
