-----BEGIN CERTIFICATE-----
MIIEVjCCAj6gAwIBAgIUKX6tzmWFpqT/bd4vCjyJM8FXTyEwDQYJKoZIhvcNAQEL
BQAwQTELMAkGA1UEBhMCUFQxCzAJBgNVBAgMAkxYMRIwEAYDVQQKDAlCdW1iYWts
YXQxETAPBgNVBAMMCGh0dHB4LWNhMCAXDTI0MDMxODE4NDUzN1oYDzMwMDQwNTIw
MTg0NTM3WjBDMQswCQYDVQQGEwJQVDELMAkGA1UECAwCTFgxEjAQBgNVBAoMCUJ1
bWJha2xhdDETMBEGA1UEAwwKaHR0cHNwcm94eTCCASIwDQYJKoZIhvcNAQEBBQAD
ggEPADCCAQoCggEBAKgmOuCa3cj/IY+6jhKTCZ+v8imHUt6laKl68honvSzOrr+7
pYTAi3fRh9zPeY7Se0vjv2IikZkfkTQieb7kL5LqcdlvvE/ShiCWB3R8lnkpewwM
Wl5v22RnYU7Yl9ogGCVAGH5TUS5RVYRxSQAE40/kPbEnLKhEiUrRne3HI+TMRzFM
FW/+9THMa7SHXhrVfiKUBVoZHiklSwL6uCby8+zM36QzKExR1MzQHvxROrDl0I1p
Oi5VuwWKHHWQHqzhqfBL/ilN19ExeBhZEBzBnuaX/awiYUg1kIwb/NskRxWSHsSK
rZKuvPQyp/gRkFlQcC4a0Jo/O04RNaR2LMc3BMkCAwEAAaNCMEAwHQYDVR0OBBYE
FIFG8NbcagzuVobwn7DMX7GJGGGeMB8GA1UdIwQYMBaAFEZ8fIO/oGnFRsKRB41r
ai5VheenMA0GCSqGSIb3DQEBCwUAA4ICAQBlEVz8LzuLIfeQb8mEraJeTfm+E3h9
HuUuNaZsL9PuoDlC+nvSkvk1FG9Wk3sbuAUaPwMObXLOQZ4bS+DDArON0ACpkpiZ
zkeL2dnlnRzJTTFy1DjsVHeGlchLvgjo2oJTzD1HMuHJqq25J96We+fbvAvwoxht
/yn/kZABGie6ei2Dt0r5Gk7G++XwlS/LSI4dyO5wnnaHRzPtIU+BQ6cevH0uiXrJ
UwQpvbqaaqfI6RY5vcP5K2IP07DWOVzZKojh2zgD5taVs+tWpVR+ptD6Gl8pkshz
MaB09NY7DkhTje8gRgP798H2xJGFpPiDQgPMhCWQ1rv5ryOH0zzvJ24bjG1fc/wN
KOei/c7WKawXMht0k9fTI5UPAuMoTujM1QmxKBF4WoKgeh27sOMLSfbPhH/YLKA4
iB9nG7R5WMOWdbFLir5ubRs/OEKEYH/5gBGfZT1pfy0Q8rN+AlLTEeOqFW3mksN0
MrYhv5r8Wo8938Bty3ga8jR0VwMay+6lqjgw8/wCS3jVo59Ni6npgBWWOMbhRSY6
In7jnfHnMpDTPab5wE8DHeLlKWbddEVIbRvYg5GgOWAOAF/E+LezGuvA7dkFQngG
XpsTO33hu5qZUpsTiizwF9N5sM0n5Ta2juce1q1V52ZWBFLj5DrcU8lMIy+7mktk
Kl+hW7fM99uzMg==
-----END CERTIFICATE-----
-----BEGIN CERTIFICATE-----
MIIETzCCAjegAwIBAgIUKX6tzmWFpqT/bd4vCjyJM8FXTyAwDQYJKoZIhvcNAQEL
BQAwQTELMAkGA1UEBhMCUFQxCzAJBgNVBAgMAkxYMRIwEAYDVQQKDAlCdW1iYWts
YXQxETAPBgNVBAMMCGh0dHB4LWNhMCAXDTI0MDMxODE4NDUzNloYDzMwMDQwNTIw
MTg0NTM2WjA8MQswCQYDVQQGEwJQVDELMAkGA1UECAwCTFgxEjAQBgNVBAoMCUJ1
bWJha2xhdDEMMAoGA1UEAwwDZG9oMIIBIjANBgkqhkiG9w0BAQEFAAOCAQ8AMIIB
CgKCAQEAvHam3xJYT0JU1e0vEvy7w9Tjrxtugh9DA08ldiOnwxgPRozLpTRsHNzx
JJ3t0BWrLHtRUNzbr+zI0UxbwcjRNL68Ez0TRoN7Ac9VlyoqR/Hn8gQCjXD36Bro
iXF/iSlKgwZ+yJlEVDln5EkTuc3JHjjjEih7YNQGwOrq8E3L1vN+Xdq7cj8iPOIp
BYBoFsO4pbtFL0nOnyAlHlGnxKQXUNxUlWA5rsuHDE2e1b0zBMJTPxg1Ff2E4Cq1
je+4WgrmT0YYzBCLu70Aqn6JEsACvrZjGZwcfyo7EWQMbJosB0Vm9VierZF2ly2J
XRj63XZ11N1B12hfRvwl9uWQ3HswrQIDAQABo0IwQDAdBgNVHQ4EFgQURDgdw3gs
mWcxaxTyNnHDQpOwnT4wHwYDVR0jBBgwFoAURnx8g7+gacVGwpEHjWtqLlWF56cw
DQYJKoZIhvcNAQELBQADggIBADP+baRm+UXs2Rym+T3iD5UZV+QWXNUQ8e+f3HK+
2w2Iaf7vhXnnMQK1q0+7fdi1NGI6pCtyB7YxdSqwRD4q/5Q2iZSbvQINHO74/0ee
t0dFEUuvBbb/0yzhCRwcjEV/5RApemY1+HzsmaZVI5ZshpmuzGVux45cJQ4jRaPc
wpGOJYOi+WovxuAT1GiAuPBxXdYXOipqRz2iW2Ehnpra2wVczr5BAHsLgHBiz7GG
TRl+AJBrMwELL3z5yBkNJXe6csoKRJOx9sry+n495zKtQS+Dwi6eeO9c2js/DR25
AiV1fHG1zfAegdwzgmPoS8BCkjJGMDRHYo0ItVG38LeL2BPzPjRxBQa/YyCwTNZE
F1HnN1Lr+Yu18C9KkWNLTS2E1soa4ygtHIOuCvjf5tmswOUezZ2fdROAoTz4e/nJ
zBrK0MLzD3JE4/qNbpGKo7qpPCZa7JHUFjCPrnO7UQZHYXj0jGoQ+SGhWfzfsBG/
OcZuuNMkxf3JfJiYzp0mQHH+YsoIlkejtpcW9WaKC4n6YCzW0z/cDOvtxd3Y1A72
ta6bl9LstIYiAJTFfRhohRjJKMo24cgP8KV54B92Te4a/fXG+mgrLSysh9gFNS96
rb5c1aWfiRFlLnALZ4dHa9c5LCNays2c6xCC0il3daS+EAPxncrcvebQsn3Tmos4
grC7
-----END CERTIFICATE-----
Certificate:
    Data:
        Version: 3 (0x2)
        Serial Number: 2 (0x2)
        Signature Algorithm: sha256WithRSAEncryption
        Issuer: C=PT, ST=LX, O=Bumbaklat, CN=httpx-ca
        Validity
            Not Before: Mar 18 18:45:36 2024 GMT
            Not After : Mar 18 18:45:36 2025 GMT
        Subject: C=PT, ST=LX, O=Bumbaklat, CN=localhost-server
        Subject Public Key Info:
            Public Key Algorithm: rsaEncryption
                Public-Key: (2048 bit)
                Modulus:
                    00:c9:74:fe:41:c8:15:92:49:80:81:9e:7d:9f:e6:
                    98:b0:68:3e:78:61:2b:db:22:a8:7e:7a:4b:5e:8a:
                    7f:2e:d0:ac:c9:15:55:a6:a9:9b:27:d0:e2:4b:2f:
                    8a:2a:8c:ea:ae:d1:70:6e:84:23:b0:24:d0:e9:6d:
                    77:88:37:ce:a9:f3:fc:5b:d8:24:ff:eb:0a:02:ed:
                    b5:6f:1c:56:38:85:91:86:92:77:ec:58:7e:38:fb:
                    1f:75:e0:66:dd:ad:ae:12:51:0b:c4:38:7a:d2:34:
                    67:b3:cb:c3:e3:dd:3a:4a:20:8a:5e:42:fd:24:a7:
                    1b:00:ea:8b:b5:cf:e2:c5:b4:33:a6:90:e5:ae:d2:
                    1d:cc:1b:03:93:8f:68:5d:84:33:94:59:84:3f:6a:
                    56:c6:56:5a:07:bd:59:a3:59:b1:d5:6f:b8:1f:99:
                    3f:c4:0e:14:2d:41:0d:b8:bd:8a:12:00:fc:8b:a4:
                    89:36:15:c3:2e:53:20:58:2c:4d:26:4b:3d:8c:49:
                    3e:31:dd:d8:47:85:39:23:88:c5:94:fa:41:30:5a:
                    ef:e4:1b:8f:27:ab:84:4c:db:dc:94:6d:99:98:44:
                    c1:9a:54:64:7f:4c:4a:94:7c:4f:c6:e7:57:d3:03:
                    97:15:57:96:a0:7c:5a:47:2a:30:5b:f0:3a:5d:66:
                    d7:6f
                Exponent: 65537 (0x10001)
        X509v3 extensions:
            X509v3 Basic Constraints:
                CA:FALSE
            X509v3 Subject Alternative Name:
                DNS:localhost, IP Address:127.0.0.1, IP Address:0:0:0:0:0:0:0:1
            X509v3 Subject Key Identifier:
                C8:FD:AF:06:10:EB:DA:FF:86:76:A9:59:86:53:77:35:31:26:66:6D
            X509v3 Authority Key Identifier:
                46:7C:7C:83:BF:A0:69:C5:46:C2:91:07:8D:6B:6A:2E:55:85:E7:A7
    Signature Algorithm: sha256WithRSAEncryption
    Signature Value:
        95:6f:55:5a:cb:db:42:de:36:1e:f6:47:d1:21:29:be:32:63:
        88:55:3c:fd:44:da:56:ac:8c:87:fb:c9:aa:0c:b4:e2:f7:98:
        3c:9c:7a:b4:15:87:cd:f1:3b:6b:a0:8f:95:1a:ae:04:0f:62:
        7a:2d:9e:c4:1d:ff:e6:27:70:af:6f:c9:61:91:c5:67:17:e3:
        99:3a:f4:bf:e6:7e:89:a2:74:e2:ab:7b:c3:aa:23:d3:66:50:
        41:d7:e7:9d:3c:84:bd:40:0f:a2:67:ed:88:cb:a3:e9:ba:d2:
        b3:5e:b4:dd:b7:f2:8c:ff:84:b2:c6:26:67:b1:e5:e0:6f:d8:
        ee:cc:1d:e3:d3:be:97:e0:27:0b:e7:6f:c5:a6:56:3c:2d:bd:
        cc:61:4c:87:24:f3:53:38:4d:35:b8:16:6a:f1:86:77:e4:e9:
        bc:27:52:43:e2:15:77:cc:ee:d7:30:ea:0f:76:56:b4:36:85:
        bd:d6:34:9f:25:91:55:12:08:4f:41:0f:1b:e8:1b:90:42:7a:
        80:35:b6:8e:64:c0:1d:90:61:b6:ed:6b:ef:80:1e:97:67:6f:
        60:4d:38:b4:a8:93:59:f9:0a:4e:b4:f7:8f:bc:4f:1e:8d:25:
        ae:35:d2:69:19:e2:04:ed:2b:b2:72:56:da:4b:fa:ed:e1:42:
        ee:b3:d3:b8:d6:91:56:8b:e4:26:8c:fb:60:26:74:6d:dc:94:
        ab:ce:37:02:8d:57:81:77:9d:98:f3:3f:09:05:c4:5c:05:49:
        60:e3:92:42:c3:cc:42:c3:a1:a5:64:a3:e6:70:a1:b3:13:38:
        c3:db:34:87:e0:32:cd:7a:8c:fa:68:f3:55:14:23:d4:87:73:
        28:36:a0:c6:b2:54:d9:5c:25:a9:b2:3e:12:91:a2:88:75:11:
        7c:a4:b4:76:1c:4f:85:94:68:8e:0f:01:8c:9e:d0:17:d7:2e:
        bb:6f:d9:fa:0e:50:1c:a4:c2:4d:c4:06:d3:2e:ca:2c:4a:1b:
        87:32:21:d2:ea:66:a6:8b:ad:cd:42:26:e5:05:68:6c:b5:da:
        cd:4e:63:e8:51:22:0c:3b:75:c1:57:32:68:10:ec:5d:f0:4d:
        19:a0:09:55:df:f3:1b:95:10:40:26:d5:1a:25:56:5e:31:de:
        46:97:da:90:55:83:44:54:4a:57:7e:f8:43:11:ed:b3:c6:93:
        87:3d:8a:de:92:d8:55:7f:c9:22:87:bd:35:ee:4e:9a:ce:55:
        ff:d2:4d:6a:77:a6:95:5d:4c:ed:db:1a:0f:b4:2e:d9:56:67:
        7c:11:e3:ce:c8:6b:87:67:92:30:ce:2b:17:46:28:39:eb:4b:
        68:b9:89:20:fa:43:f4:0a
-----BEGIN CERTIFICATE-----
MIIEgDCCAmigAwIBAgIBAjANBgkqhkiG9w0BAQsFADBBMQswCQYDVQQGEwJQVDEL
MAkGA1UECAwCTFgxEjAQBgNVBAoMCUJ1bWJha2xhdDERMA8GA1UEAwwIaHR0cHgt
Y2EwHhcNMjQwMzE4MTg0NTM2WhcNMjUwMzE4MTg0NTM2WjBJMQswCQYDVQQGEwJQ
VDELMAkGA1UECAwCTFgxEjAQBgNVBAoMCUJ1bWJha2xhdDEZMBcGA1UEAwwQbG9j
YWxob3N0LXNlcnZlcjCCASIwDQYJKoZIhvcNAQEBBQADggEPADCCAQoCggEBAMl0
/kHIFZJJgIGefZ/mmLBoPnhhK9siqH56S16Kfy7QrMkVVaapmyfQ4ksviiqM6q7R
cG6EI7Ak0Oltd4g3zqnz/FvYJP/rCgLttW8cVjiFkYaSd+xYfjj7H3XgZt2trhJR
C8Q4etI0Z7PLw+PdOkogil5C/SSnGwDqi7XP4sW0M6aQ5a7SHcwbA5OPaF2EM5RZ
hD9qVsZWWge9WaNZsdVvuB+ZP8QOFC1BDbi9ihIA/IukiTYVwy5TIFgsTSZLPYxJ
PjHd2EeFOSOIxZT6QTBa7+QbjyerhEzb3JRtmZhEwZpUZH9MSpR8T8bnV9MDlxVX
lqB8WkcqMFvwOl1m128CAwEAAaN7MHkwCQYDVR0TBAIwADAsBgNVHREEJTAjggls
b2NhbGhvc3SHBH8AAAGHEAAAAAAAAAAAAAAAAAAAAAEwHQYDVR0OBBYEFMj9rwYQ
69r/hnapWYZTdzUxJmZtMB8GA1UdIwQYMBaAFEZ8fIO/oGnFRsKRB41rai5Vheen
MA0GCSqGSIb3DQEBCwUAA4ICAQCVb1Vay9tC3jYe9kfRISm+MmOIVTz9RNpWrIyH
+8mqDLTi95g8nHq0FYfN8TtroI+VGq4ED2J6LZ7EHf/mJ3Cvb8lhkcVnF+OZOvS/
5n6JonTiq3vDqiPTZlBB1+edPIS9QA+iZ+2Iy6PputKzXrTdt/KM/4SyxiZnseXg
b9juzB3j076X4CcL52/FplY8Lb3MYUyHJPNTOE01uBZq8YZ35Om8J1JD4hV3zO7X
MOoPdla0NoW91jSfJZFVEghPQQ8b6BuQQnqANbaOZMAdkGG27WvvgB6XZ29gTTi0
qJNZ+QpOtPePvE8ejSWuNdJpGeIE7SuyclbaS/rt4ULus9O41pFWi+QmjPtgJnRt
3JSrzjcCjVeBd52Y8z8JBcRcBUlg45JCw8xCw6GlZKPmcKGzEzjD2zSH4DLNeoz6
aPNVFCPUh3MoNqDGslTZXCWpsj4SkaKIdRF8pLR2HE+FlGiODwGMntAX1y67b9n6
DlAcpMJNxAbTLsosShuHMiHS6mami63NQiblBWhstdrNTmPoUSIMO3XBVzJoEOxd
8E0ZoAlV3/MblRBAJtUaJVZeMd5Gl9qQVYNEVEpXfvhDEe2zxpOHPYrekthVf8ki
h7017k6azlX/0k1qd6aVXUzt2xoPtC7ZVmd8EePOyGuHZ5IwzisXRig560touYkg
+kP0Cg==
-----END CERTIFICATE-----
Certificate:
    Data:
        Version: 3 (0x2)
        Serial Number: 1 (0x1)
        Signature Algorithm: sha256WithRSAEncryption
        Issuer: C=PT, ST=LX, O=Bumbaklat, CN=httpx-ca
        Validity
            Not Before: Mar 18 18:45:36 2024 GMT
            Not After : Mar 18 18:45:36 2025 GMT
        Subject: C=PT, ST=LX, O=Bumbaklat, OU=nghttp2, CN=nghttp2
        Subject Public Key Info:
            Public Key Algorithm: rsaEncryption
                Public-Key: (2048 bit)
                Modulus:
                    00:ca:23:48:86:41:cf:74:44:ae:0c:79:6f:0b:6d:
                    7b:c7:20:d4:a1:2d:6b:7c:db:8f:9d:59:98:ea:cd:
                    6f:dd:af:09:95:c2:7a:33:3f:c5:c2:08:77:1a:36:
                    47:ed:c4:a1:c7:e6:e6:c7:c1:01:36:dd:43:f2:0e:
                    c8:8c:fa:03:13:e0:e6:7b:ae:5c:cc:ec:ac:f1:3e:
                    f0:5a:68:a2:31:a8:90:0c:95:cc:80:67:52:49:6b:
                    46:80:b7:ed:ed:33:f5:55:c1:9a:4f:6f:ec:21:16:
                    82:d8:1d:8c:48:57:a3:8a:04:9e:fd:cc:77:d3:24:
                    4b:81:a4:f1:24:df:90:30:65:11:73:7c:a9:cc:34:
                    9e:f4:89:58:92:c6:08:a7:74:8c:ee:bc:e1:f4:fc:
                    8d:6b:7c:e4:c9:e2:77:f2:5c:2a:57:7c:d1:d7:3f:
                    6a:a7:ad:97:78:04:7b:9d:87:8a:85:bb:2a:19:95:
                    76:34:7c:b7:96:45:bd:dc:47:fb:b8:bd:7c:3a:f5:
                    f5:57:2d:26:66:ee:68:a0:82:0e:ab:0d:9c:2b:9d:
                    dd:41:0b:1e:8a:ca:1e:f8:1f:6d:57:b3:8a:1b:7a:
                    92:67:c2:16:a3:78:7d:e0:da:fd:13:7f:93:a5:d7:
                    2c:5b:f7:f0:25:e2:c2:30:59:ad:4b:ef:f4:9a:d8:
                    f7:6b
                Exponent: 65537 (0x10001)
        X509v3 extensions:
            X509v3 Basic Constraints:
                CA:FALSE
            X509v3 Subject Alternative Name:
                DNS:nghttp2, DNS:another, DNS:another2
            X509v3 Subject Key Identifier:
                54:2A:94:81:99:61:E5:0E:19:B6:2E:DD:CB:57:9C:63:9D:E0:D2:A3
            X509v3 Authority Key Identifier:
                46:7C:7C:83:BF:A0:69:C5:46:C2:91:07:8D:6B:6A:2E:55:85:E7:A7
    Signature Algorithm: sha256WithRSAEncryption
    Signature Value:
        84:85:f3:99:fc:0c:a5:5b:4b:6e:3c:95:40:6b:49:0c:10:c0:
        11:44:b4:27:54:dc:f7:06:7d:8f:c8:83:26:23:0a:4a:89:16:
        bd:05:22:65:6e:c1:ea:92:5d:84:26:91:91:cd:33:37:63:55:
        f6:34:55:c2:07:0e:e8:6a:56:6d:25:5c:21:dd:8c:52:3b:0b:
        71:98:2e:bb:cb:2b:9e:d1:e5:c3:9c:d1:16:5f:3d:8f:5d:99:
        d9:42:73:ea:dd:c9:c2:9e:7c:18:f6:3c:36:88:2c:51:1b:d0:
        3e:e2:a1:67:a5:90:9f:cf:15:31:c6:5e:0c:ec:53:81:e6:09:
        5a:8b:ab:12:0a:e0:58:46:3f:c3:2e:60:a4:bd:38:81:a0:18:
        ac:d8:3f:8c:84:4d:95:72:56:8f:2a:4d:de:eb:e5:75:00:b5:
        59:04:db:0c:4e:ea:aa:bb:64:22:6f:4c:06:c0:1e:c3:d0:9d:
        96:3c:c2:ad:6d:02:9e:78:eb:ba:b2:18:5d:82:6f:42:0d:b6:
        dd:60:85:75:50:62:96:53:14:6c:7a:86:ae:b6:56:4a:58:e5:
        82:19:aa:9a:e8:6f:76:bb:e7:7a:52:d5:58:d1:0c:ca:a7:ed:
        c2:62:05:92:66:14:e9:cb:03:09:48:5f:0e:9b:0a:3b:1d:f8:
        6f:85:0f:b6:83:97:c9:e0:88:c7:fd:3c:1e:51:2f:2d:8c:8e:
        39:39:62:6f:d3:bd:17:3a:db:d0:68:42:a7:3c:86:40:cf:83:
        f2:f1:c5:ac:22:33:8b:17:0f:97:71:29:0d:57:f9:99:ae:4c:
        b2:3d:53:4e:95:29:f9:b8:b5:cd:4c:06:aa:33:ca:9f:3a:c7:
        40:fc:8c:21:50:bd:2f:fa:97:f3:72:a2:bf:3b:5b:a3:ab:31:
        38:cb:3a:c5:14:d2:b2:04:96:2d:6b:07:8f:cb:33:50:5c:3b:
        df:44:6e:fa:d2:53:99:33:c6:fe:b4:f0:01:4f:69:e5:aa:fd:
        08:0d:51:5d:a6:2c:77:e6:50:ab:fa:b8:7c:96:fd:87:b7:83:
        01:45:88:ba:5d:f5:54:b1:0b:11:33:c0:18:de:ff:28:54:56:
        c0:4b:86:81:3f:71:b8:d1:80:24:55:fd:12:04:57:68:f5:4e:
        a6:b4:52:2f:ce:2c:d3:01:44:49:cc:a8:21:74:f8:2b:9f:6d:
        ed:66:e0:48:6e:9d:01:4e:26:f4:44:e0:e8:06:c9:e7:27:43:
        10:2e:40:67:f4:e4:74:9d:12:a6:ef:01:26:3c:1f:68:b3:49:
        b3:af:62:5b:14:16:c0:78:a1:83:e2:b2:c1:d6:6a:f0:86:ab:
        34:c3:ae:92:1a:ca:ad:44
-----BEGIN CERTIFICATE-----
MIIEgjCCAmqgAwIBAgIBATANBgkqhkiG9w0BAQsFADBBMQswCQYDVQQGEwJQVDEL
MAkGA1UECAwCTFgxEjAQBgNVBAoMCUJ1bWJha2xhdDERMA8GA1UEAwwIaHR0cHgt
Y2EwHhcNMjQwMzE4MTg0NTM2WhcNMjUwMzE4MTg0NTM2WjBSMQswCQYDVQQGEwJQ
VDELMAkGA1UECAwCTFgxEjAQBgNVBAoMCUJ1bWJha2xhdDEQMA4GA1UECwwHbmdo
dHRwMjEQMA4GA1UEAwwHbmdodHRwMjCCASIwDQYJKoZIhvcNAQEBBQADggEPADCC
AQoCggEBAMojSIZBz3RErgx5bwtte8cg1KEta3zbj51ZmOrNb92vCZXCejM/xcII
dxo2R+3Eocfm5sfBATbdQ/IOyIz6AxPg5nuuXMzsrPE+8FpoojGokAyVzIBnUklr
RoC37e0z9VXBmk9v7CEWgtgdjEhXo4oEnv3Md9MkS4Gk8STfkDBlEXN8qcw0nvSJ
WJLGCKd0jO684fT8jWt85Mnid/JcKld80dc/aqetl3gEe52HioW7KhmVdjR8t5ZF
vdxH+7i9fDr19VctJmbuaKCCDqsNnCud3UELHorKHvgfbVeziht6kmfCFqN4feDa
/RN/k6XXLFv38CXiwjBZrUvv9JrY92sCAwEAAaN0MHIwCQYDVR0TBAIwADAlBgNV
HREEHjAcggduZ2h0dHAyggdhbm90aGVygghhbm90aGVyMjAdBgNVHQ4EFgQUVCqU
gZlh5Q4Zti7dy1ecY53g0qMwHwYDVR0jBBgwFoAURnx8g7+gacVGwpEHjWtqLlWF
56cwDQYJKoZIhvcNAQELBQADggIBAISF85n8DKVbS248lUBrSQwQwBFEtCdU3PcG
fY/IgyYjCkqJFr0FImVuweqSXYQmkZHNMzdjVfY0VcIHDuhqVm0lXCHdjFI7C3GY
LrvLK57R5cOc0RZfPY9dmdlCc+rdycKefBj2PDaILFEb0D7ioWelkJ/PFTHGXgzs
U4HmCVqLqxIK4FhGP8MuYKS9OIGgGKzYP4yETZVyVo8qTd7r5XUAtVkE2wxO6qq7
ZCJvTAbAHsPQnZY8wq1tAp5467qyGF2Cb0INtt1ghXVQYpZTFGx6hq62VkpY5YIZ
qprob3a753pS1VjRDMqn7cJiBZJmFOnLAwlIXw6bCjsd+G+FD7aDl8ngiMf9PB5R
Ly2Mjjk5Ym/TvRc629BoQqc8hkDPg/LxxawiM4sXD5dxKQ1X+ZmuTLI9U06VKfm4
tc1MBqozyp86x0D8jCFQvS/6l/Nyor87W6OrMTjLOsUU0rIEli1rB4/LM1BcO99E
bvrSU5kzxv608AFPaeWq/QgNUV2mLHfmUKv6uHyW/Ye3gwFFiLpd9VSxCxEzwBje
/yhUVsBLhoE/cbjRgCRV/RIEV2j1Tqa0Ui/OLNMBREnMqCF0+Cufbe1m4EhunQFO
JvRE4OgGyecnQxAuQGf05HSdEqbvASY8H2izSbOvYlsUFsB4oYPissHWavCGqzTD
rpIayq1E
-----END CERTIFICATE-----
-----BEGIN CERTIFICATE-----
MIIFZTCCA02gAwIBAgIUaFvX6FkUAsY4GddY1yzOmjH9xVQwDQYJKoZIhvcNAQEL
BQAwQTELMAkGA1UEBhMCUFQxCzAJBgNVBAgMAkxYMRIwEAYDVQQKDAlCdW1iYWts
YXQxETAPBgNVBAMMCGh0dHB4LWNhMCAXDTI0MDMxODE4NDUzNloYDzMwMDQwNTIw
MTg0NTM2WjBBMQswCQYDVQQGEwJQVDELMAkGA1UECAwCTFgxEjAQBgNVBAoMCUJ1
bWJha2xhdDERMA8GA1UEAwwIaHR0cHgtY2EwggIiMA0GCSqGSIb3DQEBAQUAA4IC
DwAwggIKAoICAQCwxVco4PazRrw6nUpOo4ZhYt6jYURSLmJ/nFCnhau9GJS09GMm
+CW01kMfC9MC6yGUm1btPxpwZUSbWeho3L5RZKVioxy2JjqyQmLkaqPVPyJ3HNQ1
TSC6vz2gFLi4XQDxHaAZabRj517Lp/VNgHYcsxYlnb0OnwG2YA72+6Dvkn/tgWdP
7ACxBA31gtoLXTT/IKQlA+B87ds+3znIdodkmYaWq1JXsAGO35nDZEx6VovJ+c4h
RfUqXj3DSJvs3y9I8gZUdJuEuv1pXKxQq+EMOrexm/xZOiwIsNRiwYSRolUc8zEH
HtVCnLpP7S0/pawuoJhpBEzJI6fDv11tE4Ro/4ExWcVKnOxmFmI+PAFV3zLY/cuj
ozNjRcg/XDl8nahs0ga+2e5NruBM/+TACUuDo+armt1nKFW5H56MZD5j6cgHvL9b
ixernPONpdqsKM3jIUo8aXIKHmO0B5Yr0wBs/6RSMpewa8ORr+mdHtur4AZ0nShE
thRUyobs4ym+JKherdAgz8NTBnc4lrHgZyPHLvSIXSk8MyVSvaGMCelthfpX0iJ7
REU1uZk7HibzrgwXERbi290dgyTZ8KGlWXaPygH9ZcxVd30XyVGj4ll6mxRPIHWf
b2NCGfpXvUeYl5nECqGFMUywMzd47La0skO6e7RXoS72bXNd5cUtm7ZYewIDAQAB
o1MwUTAdBgNVHQ4EFgQURnx8g7+gacVGwpEHjWtqLlWF56cwHwYDVR0jBBgwFoAU
Rnx8g7+gacVGwpEHjWtqLlWF56cwDwYDVR0TAQH/BAUwAwEB/zANBgkqhkiG9w0B
AQsFAAOCAgEAYP7HjWjljDLq3dQIgSdQq/D/yBWSi1HJgybhjWTsQv3OIzl6nw48
oKozZEkF+Nj9BZCsDWOfFPFbxf7uB0Vwor9GYkpkq7cU7WuaO8E7xrwDOvecL+iI
PPZ8HAccdb9t1i0mhnA1EWgHuS1x/1FAEL3B8OVVKSCQ0lAym9Upl8tR/5UPihxC
btYAtZFbfisxw00Hq4Lhw8fHwa2Zg486prFqyH9IMLQzkJJDEF2HXfQJ2o1W52/x
iDY9ts6RCs/lvTa8bh2ijl6TUpRzYyppRVWOQoIgFhMWJYYnZ1n5jWBxo7sxTTGk
dhgKbelHj7N2EIrZd6rIN2ZxqErDQci+1MXh7EoWFpJnpX3+02cNoh/oqmayDPS5
GO44N2yuACOJDTuZaNSphXnN1tKoIimb7JQj+nV4+bzSLPku/9YV/2V1UbbR92bK
FLMs5VcK5A02z5QcZgjmYqPcTNzCbNWBZ/WVcD77rMnI13AwohNuFfVMCGl5l9gC
38gmeGfOpOcOQk54xxotXDniMlMyUD3NtuyfRc6/sFLQHyUnS/S893A2k+fJ7FM/
83ZBa0uy1yw/eWcg9IwmR/zTN4e9spO6qyz+Fe9pUHNApKrMgYS3CeVbXt+X/hHB
grS6N1oxXR35H77+fSio83evOXeldc7q+sAJ2vtE/9L9777IgxCy2R4=
-----END CERTIFICATE-----
