-----BEGIN CERTIFICATE-----
MIIEBjCCAe4CFDz8H/sVZb4kkfSQa/gbmM4v8buKMA0GCSqGSIb3DQEBCwUAMEEx
CzAJBgNVBAYTAlBUMQswCQYDVQQIDAJMWDESMBAGA1UECgwJQnVtYmFrbGF0MREw
DwYDVQQDDAhodHRweC1jYTAgFw0yMzAzMjcyMTU5MDhaGA8zMDAzMDUyOTIxNTkw
OFowPDELMAkGA1UEBhMCUFQxCzAJBgNVBAgMAkxYMRIwEAYDVQQKDAlCdW1iYWts
YXQxDDAKBgNVBAMMA2RvaDCCASIwDQYJKoZIhvcNAQEBBQADggEPADCCAQoCggEB
AMLj0K44veJ9AjXC2blQXmSCTwoa92lMOkZaHCq/1GXaO3t09GrgF71XbE9gLtre
FB3IMMzpNdchUZxfhMaKldoya5Pf4eO1b90CfWGbFrwXdCAbjJAOUdUXnPDaqii5
VxC6/0D7uYqc9Rxid5L9H2OZtF6MCGX3qoVejGoFOTDv4UxeUeQ/tm6LetPNC5dH
oH0gnLInKnGqdhMUxaZ1/qhdT7dlSkC8TZQFqc91AIo6WzA57kkuRmv+d0G21GM4
U4VLLvmtJUNiqMq5oNQPz6lbSq8nVzlT8SOPgKQX+GUf8pCPdoyHje+PdWGgyk3K
r0ixLgWMfN29GhiS5y0fiJsCAwEAATANBgkqhkiG9w0BAQsFAAOCAgEAEl4lq4Xo
ChjDjkvZRT4mJyvxHr2vKQM2LOM5FiYH+KM7sP0/7Lv+Vk7QVkZhcxuxkHvCKyA7
y2Ti1M8qqeY0Uq92Z7e4bYapQkxilSCUqNOYuaYNUzCtiPIgXdamr/AsQhT85VMe
K8nGjQ0FFDwEBzvu871IqvVG+6eiaYkdLEoRBFYmkbi84UFS8eFXUx4St0P8KyQ2
CsY4w+zrN+QNDeZMko6qTiO8SiRzvFPWq7r+f4L1BSxOADzXb7gZeg/b8ZAhTAsM
dosVHfd69EDpSsrQIghxwIWdJ/u3RQWl2IzWcT6iIh3nu+rhSppDfD9qrUX3WFi1
RD6rpiKErcjcMXdLV8H6DP4hTMCAqo3CrHaZ2p1S98fZNVAuc5Ux7tGUDFYO2K94
ULmErl+JeN9R1jNPeG9Mezg2sXDULa4InoAw0U0AN5idPy8onhEv+6rCmbTGC+rZ
cKdfuvygS/c67vod4JM0oPh1w4mc2FHAzUvZ0Ezf93Di6UXC0yWWyaB67o3fNjXb
W0j5qGFeCSb+hxnGd4DyZsSE9ixBtYLHl7AfY55hX4TgTmyd2459diBaol6r5/kQ
QLmDm/4iFv21y8MjDGYFda8ncf96JwysEHWoY5uzK3Q/vJJF/jbulLmRc/iZMjY6
PZPb5bamwW3Gn5QzFv/cvd+Xm9ktpIWeSJQ=
-----END CERTIFICATE-----
Certificate:
    Data:
        Version: 3 (0x2)
        Serial Number: 1 (0x1)
        Signature Algorithm: sha256WithRSAEncryption
        Issuer: C=PT, ST=LX, O=Bumbaklat, CN=httpx-ca
        Validity
            Not Before: Mar 27 21:59:08 2023 GMT
            Not After : Mar 26 21:59:08 2024 GMT
        Subject: C=PT, ST=LX, O=Bumbaklat, OU=nghttp2, CN=nghttp2
        Subject Public Key Info:
            Public Key Algorithm: rsaEncryption
                RSA Public-Key: (2048 bit)
                Modulus:
                    00:a1:e3:3c:01:8e:bb:14:ad:4b:63:07:e5:07:de:
                    8a:60:2b:4b:47:5e:07:22:75:f4:78:41:02:55:a9:
                    c2:20:af:14:e5:55:85:64:33:40:ba:d3:11:6e:9a:
                    9d:fe:7a:ee:98:04:55:91:4e:9e:52:67:03:13:14:
                    02:38:45:4a:48:08:80:79:7c:7f:a7:e0:30:20:1f:
                    2f:32:1f:15:69:bd:7a:76:9c:77:3b:41:84:d6:08:
                    a3:6f:85:84:14:15:9d:d9:25:b9:7a:74:1c:df:d3:
                    92:7b:84:8e:1f:6a:a7:28:bd:3b:db:dd:84:7f:33:
                    53:61:a4:3b:d9:8c:c4:42:21:63:5c:ac:7b:26:6e:
                    b9:dd:fe:f8:bd:0c:8a:b1:62:11:80:92:63:62:2f:
                    1b:19:0f:1a:b3:8d:1e:68:1e:fb:dd:66:1e:68:45:
                    5b:ef:20:cd:eb:05:d4:5b:d6:0b:1d:a6:ec:e0:db:
                    32:5c:83:f1:9e:33:04:20:66:a2:2d:22:39:f4:96:
                    76:a5:23:5a:37:bd:08:b1:7b:7f:96:c7:e6:23:f7:
                    16:dc:8b:93:00:98:32:49:6f:e8:58:eb:72:6a:fc:
                    22:96:39:62:5f:cd:2d:79:7d:bf:2b:46:0f:a1:e7:
                    4d:f8:2e:55:ed:02:70:2e:81:3e:56:ce:70:79:0d:
                    65:69
                Exponent: 65537 (0x10001)
        X509v3 extensions:
            X509v3 Basic Constraints: 
                CA:FALSE
            X509v3 Subject Alternative Name: 
                DNS:nghttp2, DNS:another, DNS:another2
            X509v3 Subject Key Identifier: 
                86:0C:AD:81:3F:F9:3F:B5:E1:31:FF:00:BD:4D:7F:4D:5C:73:73:98
    Signature Algorithm: sha256WithRSAEncryption
         d3:e2:eb:0f:22:ca:f5:60:13:d0:c0:85:21:d6:16:9f:13:4c:
         f4:62:bb:f7:e4:1d:21:25:60:03:80:d8:19:9b:b5:42:37:91:
         87:7b:51:6d:10:f2:af:e7:18:5d:a2:cc:af:9d:a0:9e:66:cb:
         cd:e7:e3:f6:0a:d2:9a:3a:1d:06:0f:bb:ef:cc:da:64:b0:6e:
         1b:7e:70:e5:56:00:4e:a3:6a:99:1a:d1:6d:87:8d:61:53:0e:
         e1:d3:1a:64:ee:fb:0e:23:0c:29:41:50:9f:63:0c:28:44:35:
         af:39:72:2c:c9:7e:19:93:f5:8f:5d:6a:c0:08:63:34:e3:bf:
         af:60:04:9e:e7:a3:d7:da:37:ec:df:d7:8f:5c:06:df:ff:51:
         36:54:c4:9d:ad:dc:cf:4b:6a:92:85:d0:de:52:d1:ca:9f:e6:
         eb:8a:6c:22:74:d3:d9:0b:30:da:d6:88:d2:cc:4a:2d:72:50:
         87:ad:03:37:d2:f6:6d:11:54:8b:9f:2f:ac:15:ab:8f:e1:48:
         bb:e2:34:ea:12:68:d7:93:39:e3:03:1c:7c:31:5e:96:cf:3c:
         fe:e2:17:b2:65:18:10:57:cf:c3:ac:bf:80:f1:b8:df:4f:b2:
         73:6b:74:cf:c0:b3:c2:30:fc:ff:9e:db:45:c6:cc:dc:80:9c:
         80:65:66:45:b6:c1:58:9b:65:b0:43:ad:d6:87:16:6f:d4:a9:
         a9:90:92:77:db:70:51:fa:82:2b:dc:d9:17:3a:c0:1b:ed:6e:
         77:ef:58:a8:9c:0e:17:02:d2:85:2d:e7:34:ad:58:d3:fc:66:
         93:2a:ac:7e:6a:0c:9d:03:95:4e:e7:22:cd:37:ea:a4:ae:bd:
         58:74:11:fc:99:7b:d7:54:d2:bd:92:65:74:b5:09:fe:4c:7a:
         37:85:0a:49:38:cd:2f:11:41:07:b9:14:65:84:03:54:4e:72:
         99:99:8e:5e:ec:42:45:63:ff:4d:50:d7:9d:0f:5e:8a:e6:56:
         3c:9a:1d:56:03:3e:9c:77:da:32:94:83:ee:03:1d:9f:c8:83:
         6f:b4:b1:c1:87:06:65:93:71:01:a0:39:c6:2b:d1:5c:54:f3:
         0a:1a:51:4c:ab:d2:52:81:19:72:8e:c3:9f:77:80:16:44:2f:
         be:85:db:83:a5:42:56:82:21:15:28:b4:84:ed:8d:a4:24:d6:
         a3:72:ee:90:a8:22:31:de:a6:4e:3c:81:cc:c7:d3:c2:c9:07:
         07:0b:30:35:d0:0c:e7:4f:1d:5e:1f:0c:78:13:f0:4e:13:7f:
         5e:23:7f:42:4a:c1:33:72:99:57:63:1b:ef:a2:2f:a4:14:17:
         26:50:87:8e:92:d7:c5:c6
-----BEGIN CERTIFICATE-----
MIIEYTCCAkmgAwIBAgIBATANBgkqhkiG9w0BAQsFADBBMQswCQYDVQQGEwJQVDEL
MAkGA1UECAwCTFgxEjAQBgNVBAoMCUJ1bWJha2xhdDERMA8GA1UEAwwIaHR0cHgt
Y2EwHhcNMjMwMzI3MjE1OTA4WhcNMjQwMzI2MjE1OTA4WjBSMQswCQYDVQQGEwJQ
VDELMAkGA1UECAwCTFgxEjAQBgNVBAoMCUJ1bWJha2xhdDEQMA4GA1UECwwHbmdo
dHRwMjEQMA4GA1UEAwwHbmdodHRwMjCCASIwDQYJKoZIhvcNAQEBBQADggEPADCC
AQoCggEBAKHjPAGOuxStS2MH5QfeimArS0deByJ19HhBAlWpwiCvFOVVhWQzQLrT
EW6anf567pgEVZFOnlJnAxMUAjhFSkgIgHl8f6fgMCAfLzIfFWm9enacdztBhNYI
o2+FhBQVndkluXp0HN/TknuEjh9qpyi9O9vdhH8zU2GkO9mMxEIhY1yseyZuud3+
+L0MirFiEYCSY2IvGxkPGrONHmge+91mHmhFW+8gzesF1FvWCx2m7ODbMlyD8Z4z
BCBmoi0iOfSWdqUjWje9CLF7f5bH5iP3FtyLkwCYMklv6Fjrcmr8IpY5Yl/NLXl9
vytGD6HnTfguVe0CcC6BPlbOcHkNZWkCAwEAAaNTMFEwCQYDVR0TBAIwADAlBgNV
HREEHjAcggduZ2h0dHAyggdhbm90aGVygghhbm90aGVyMjAdBgNVHQ4EFgQUhgyt
gT/5P7XhMf8AvU1/TVxzc5gwDQYJKoZIhvcNAQELBQADggIBANPi6w8iyvVgE9DA
hSHWFp8TTPRiu/fkHSElYAOA2BmbtUI3kYd7UW0Q8q/nGF2izK+doJ5my83n4/YK
0po6HQYPu+/M2mSwbht+cOVWAE6japka0W2HjWFTDuHTGmTu+w4jDClBUJ9jDChE
Na85cizJfhmT9Y9dasAIYzTjv69gBJ7no9faN+zf149cBt//UTZUxJ2t3M9LapKF
0N5S0cqf5uuKbCJ009kLMNrWiNLMSi1yUIetAzfS9m0RVIufL6wVq4/hSLviNOoS
aNeTOeMDHHwxXpbPPP7iF7JlGBBXz8Osv4DxuN9PsnNrdM/As8Iw/P+e20XGzNyA
nIBlZkW2wVibZbBDrdaHFm/UqamQknfbcFH6givc2Rc6wBvtbnfvWKicDhcC0oUt
5zStWNP8ZpMqrH5qDJ0DlU7nIs036qSuvVh0EfyZe9dU0r2SZXS1Cf5MejeFCkk4
zS8RQQe5FGWEA1ROcpmZjl7sQkVj/01Q150PXormVjyaHVYDPpx32jKUg+4DHZ/I
g2+0scGHBmWTcQGgOcYr0VxU8woaUUyr0lKBGXKOw593gBZEL76F24OlQlaCIRUo
tITtjaQk1qNy7pCoIjHepk48gczH08LJBwcLMDXQDOdPHV4fDHgT8E4Tf14jf0JK
wTNymVdjG++iL6QUFyZQh46S18XG
-----END CERTIFICATE-----
-----BEGIN CERTIFICATE-----
MIIFZTCCA02gAwIBAgIUJdcOGqGWAcH9YIqBAoV0h5+2LEMwDQYJKoZIhvcNAQEL
BQAwQTELMAkGA1UEBhMCUFQxCzAJBgNVBAgMAkxYMRIwEAYDVQQKDAlCdW1iYWts
YXQxETAPBgNVBAMMCGh0dHB4LWNhMCAXDTIzMDMyNzIxNTkwOFoYDzMwMDMwNTI5
MjE1OTA4WjBBMQswCQYDVQQGEwJQVDELMAkGA1UECAwCTFgxEjAQBgNVBAoMCUJ1
bWJha2xhdDERMA8GA1UEAwwIaHR0cHgtY2EwggIiMA0GCSqGSIb3DQEBAQUAA4IC
DwAwggIKAoICAQDtyRKc2TIf9sL/8/RLDI+aSZBsQOnXrNX2HvDKD5FGhtmSNr0o
IHaPIbIBb55Mf2WqJlPO0a2E2AkTSFKuA5onrD1OHD38lv8M7Ox/KIis8U3EPTSB
XDHJqndfOvAgXjygnr1ZWHOHTkvEUfCZBwVFPWixibKu45MaT/Q5Wer5BQQ6Lo0g
kZTo7Lc+aM39e+kia9BFUy5Ao/xYHWvRC/ezSrr7peVaSVecZ7440QN2cp/ZAL9X
BH6g9o20m8KkxNAhxHDQtIT4mNH9Z/Od18IggiFLMZYOdRGnHZiFFO8u6fHqztjP
lLeKV5DeKRZAJUszg5uDYTHHLMNU80gZypVZ5dRkm6dfird9cVN1LU57Sh+mwJcy
JP1WSofS2N1swb3J6Bjpm/byzJVTPEpjJy/y4uNJo9XYljY41HWpJjUE6GTJuL5V
pPs+y1v8wEZexxQx0sC1hL8tNXyzSDzJtOkdHR36MF86XxxeM4UcCz0Wwudx7Wh0
NaGrz//X0qeWJz3Td68l57z54I6MeN7y+NYO8mls1VQpQ2j0UtAbR8ocy0COT/NK
+N9V8CfXar0jVz6I/MYfoaDtOPfpfG38dSLRz05nKGgITp1u9IDvMvHeAl0G7qdK
C2dJe7YqkGQ4EsYcNMocU/1coTuxCXs2a25SKWtJVZjodMUxfZ5Qa+NdCwIDAQAB
o1MwUTAdBgNVHQ4EFgQUqZiBBKEmb0stHupWEJOLE2nmSNswHwYDVR0jBBgwFoAU
qZiBBKEmb0stHupWEJOLE2nmSNswDwYDVR0TAQH/BAUwAwEB/zANBgkqhkiG9w0B
AQsFAAOCAgEAis16psU8f30ABg8kLz2HVGDT9XvgukEJIZLLdx6XpME07yuw4qRu
9CfXd1F7k21X0oK2FfXAoqBYhaCs5r9AzGH0fhftSLrft1RGl/oiBoU9pmaL0Fvj
u/5V2pzxyyfBMFyMYnodNpbo74HaiAaf4ufepRmxn8Flk6Vekw2MbgxP8o8N7q+n
9qPZiDR+8T2PBat0XeMpH5GUJVgAtCqLYTJHagtGow5yofsY4e9NBEET46YDN2Zj
7seankprWvgEI7XCNimuB251Hv+vg/4pqtdZSPtAJuqgCavuAW0vQSr2BBubHGaq
xXkLcQdU4Q4yCwPBOXkdX1oSjgkEiDQSVLiNMWeN907rAcu0Hom9Fgy6nQJ232Kt
EDF3RJOs91PQhNyLZgySggzisCSuwzJuv7mMUIg2h17Secva+xbemu+WTiIMPxrO
nvZh9Ux2X0w1Jp5IiZf0D8LB3LQ6XpQnaB2B7NVXJkuN9YJq1eUw147FntU1po1W
Agi+f+jHmVanGaTrSuleU2DGb9DRwTFvss9VCI2XGpi2GT1Brrd47dytAq05SzW3
XcXsDESnGgf38SUvG+0oGHW7LH5U9cs8DVm7UNijFiYeANyWqrMi4LeXF0rUWOa5
qZIQdYO8N5FFqp9dnAFPBvXgXfhMX0m+OleqQ74a0oxSzfrXbjxDKr0=
-----END CERTIFICATE-----
