Certificate:
    Data:
        Version: 3 (0x2)
        Serial Number:
            98:cf:73:54:2c:1b:55:5b
    Signature Algorithm: sha256WithRSAEncryption
        Issuer: C=PT, ST=Kingston, L=Babylon, O=Bumbaklat, OU=Orga, CN=Reefa/emailAddress=reef@reef.com
        Validity
            Not Before: Feb 10 19:47:59 2018 GMT
            Not After : Nov 30 19:47:59 2020 GMT
        Subject: C=PT, ST=Kingston, L=Babylon, O=Bumbaklat, OU=Orga, CN=Reefa/emailAddress=reef@reef.com
        Subject Public Key Info:
            Public Key Algorithm: rsaEncryption
                Public-Key: (4096 bit)
                Modulus:
                    00:c0:8b:0e:f7:c1:1a:00:95:4f:b3:95:5d:2a:60:
                    4e:1c:d5:98:4b:7d:16:3c:5c:90:93:b9:16:96:f4:
                    87:c2:77:8e:5c:8c:12:a7:b6:57:a6:07:b2:21:85:
                    cc:17:20:bc:8d:0f:8f:1b:94:7d:a1:2a:36:0f:a0:
                    8d:53:80:6b:23:1d:59:59:63:a7:b0:aa:99:94:73:
                    ce:f4:4d:23:b1:0f:ee:6a:8b:75:59:cf:91:32:41:
                    2e:22:d3:20:41:0c:a5:43:d5:96:fe:ab:ea:31:df:
                    47:40:30:2b:eb:09:ac:45:ba:da:e8:84:44:30:57:
                    44:35:25:85:99:58:e2:c8:1f:ef:50:1f:4e:ef:0f:
                    b2:b3:66:24:00:12:8f:de:7d:0f:c1:0b:94:99:fc:
                    18:9e:3b:41:79:02:3c:94:7f:3d:e6:b1:ed:e7:d8:
                    b9:01:93:67:09:49:6b:08:43:54:37:7c:a2:83:71:
                    40:f9:9e:88:fa:ae:f3:4e:bd:cb:70:2e:87:ce:9d:
                    e0:62:03:07:54:ca:da:25:1a:53:1b:76:71:44:81:
                    48:89:5a:6f:83:3b:65:e5:5a:1f:14:58:42:08:16:
                    3a:37:f6:a0:b9:90:00:aa:b5:ba:48:db:d9:0c:e6:
                    7c:d9:d8:5d:9d:95:32:5e:35:2c:6b:9b:e0:77:3f:
                    cd:6d:b4:f5:9d:09:23:ff:cd:4f:31:0e:8e:ef:4c:
                    b3:33:56:1e:62:ff:0c:ca:01:3d:16:de:dc:51:62:
                    5c:a2:f6:5e:5e:00:98:8f:31:55:eb:16:1d:5d:a1:
                    87:25:4f:9b:76:d8:78:5d:a3:58:8f:34:b4:7e:4e:
                    ab:89:bc:c6:cc:01:21:18:3b:68:0b:7b:ea:d6:d1:
                    f4:79:b2:53:96:a1:53:14:d6:b1:ad:48:c9:e4:4e:
                    77:d6:c1:b1:82:35:20:12:02:f0:b7:91:d0:ac:43:
                    3f:34:2d:f4:f1:58:8c:31:75:bd:0b:7a:18:98:ab:
                    c7:25:14:da:b1:02:b5:55:69:a2:68:85:02:c9:d7:
                    db:e4:aa:86:02:ae:83:b1:18:0b:f0:e2:f1:da:23:
                    54:4b:16:8f:22:11:5e:7c:3a:61:c5:e0:46:3d:9a:
                    74:4b:ca:42:4e:8e:40:68:9e:96:30:79:3c:df:5f:
                    d7:1e:6b:4f:13:a7:ad:38:53:fa:e2:0e:04:91:37:
                    de:6f:d7:36:4e:00:b2:8a:61:eb:f5:c8:a6:40:38:
                    2a:29:95:21:e5:fa:62:84:42:3a:72:4d:1f:9b:86:
                    52:25:c6:cf:1a:d4:98:d0:26:6d:53:d7:89:08:c1:
                    3b:d6:bf:eb:21:6c:22:ad:f1:b4:ec:97:a2:a2:32:
                    52:bc:b3
                Exponent: 65537 (0x10001)
        X509v3 extensions:
            X509v3 Subject Key Identifier: 
                F9:73:66:C9:3C:56:45:07:95:E3:BE:67:B4:F2:DF:57:C4:FB:C8:F6
            X509v3 Authority Key Identifier: 
                keyid:F9:73:66:C9:3C:56:45:07:95:E3:BE:67:B4:F2:DF:57:C4:FB:C8:F6

            X509v3 Basic Constraints: 
                CA:TRUE
    Signature Algorithm: sha256WithRSAEncryption
         48:91:ad:bd:a8:75:22:2f:d4:37:b1:97:a3:1a:fd:a2:29:68:
         c7:e4:2d:39:b4:2d:ec:28:34:f1:17:56:c1:02:00:28:78:35:
         c0:91:11:85:98:aa:00:69:84:e8:6d:51:ab:80:58:3c:b8:06:
         cb:92:84:42:dc:58:e9:06:b7:95:89:00:28:ff:4d:6e:c0:f5:
         1e:16:8b:13:e2:73:60:8b:2e:1f:cd:f2:eb:80:1a:bb:a6:bf:
         b0:17:4e:a1:7a:0a:f0:0e:67:a7:13:b2:4a:fa:41:69:69:00:
         0e:b0:cf:7a:9f:d4:c6:fd:5f:8e:a2:6c:22:91:ad:12:cc:f7:
         a0:2a:74:39:60:6a:f8:be:e0:f0:d1:83:da:12:5b:a5:89:c7:
         22:90:1f:0d:42:68:0f:05:e9:65:c3:47:c3:69:b1:64:c3:22:
         99:c1:74:bd:b5:ad:0a:d6:43:a8:62:3d:6b:15:57:88:91:1f:
         86:53:9f:51:9b:17:fe:e7:1d:65:d3:e5:99:c9:f1:81:f1:10:
         e2:ec:58:77:08:ff:9e:04:54:2c:70:c0:4c:e6:69:95:82:fc:
         b7:06:4c:43:dc:54:e9:47:52:0d:90:4d:b9:16:b7:ac:d9:16:
         f1:f5:98:a8:1c:ec:dc:6a:47:11:98:90:16:eb:16:47:9c:ca:
         6e:f3:ee:22:3d:b6:4d:6c:06:97:7e:b3:2a:75:d1:a9:e5:c9:
         6b:81:c8:22:19:5f:a7:3c:02:bf:bb:2d:7c:e9:22:c6:c9:72:
         8b:f4:32:d5:51:ff:e9:2c:3f:93:77:bb:36:16:21:b5:cf:1e:
         65:bb:26:0f:e3:cc:2f:c2:36:15:30:48:a2:49:c1:51:9a:69:
         4f:be:d9:d0:8d:61:6b:3e:dc:71:08:2f:58:26:57:86:4b:ed:
         59:ae:92:99:27:0d:17:0a:5b:a6:31:84:7e:2d:d1:4a:fb:fe:
         6b:1e:44:4d:10:3e:e1:33:dc:3b:3a:08:68:3d:f9:9b:b8:37:
         59:ae:03:b2:aa:7d:fd:9b:6d:fa:e9:34:62:b3:f7:02:60:b4:
         14:7e:37:b2:ae:6d:68:63:6c:dd:5f:b5:84:8f:59:99:09:74:
         d8:f8:5f:aa:32:7c:2e:e0:75:26:27:ff:d5:16:e1:ae:d7:d2:
         44:0f:60:af:13:56:9a:38:f1:f2:b2:1a:6b:a7:62:30:99:70:
         1d:0c:cb:25:3d:d9:8d:5a:a0:86:71:3a:81:c5:a4:b2:11:9b:
         71:14:f3:b7:5b:78:39:04:17:7d:52:5a:52:c0:d4:eb:f2:a5:
         b7:58:10:51:f0:07:b3:7e:86:95:c4:00:e0:b8:79:65:d5:63:
         0d:56:fd:0c:bb:a9:55:0b
-----BEGIN CERTIFICATE-----
MIIF2zCCA8OgAwIBAgIJAJjPc1QsG1VbMA0GCSqGSIb3DQEBCwUAMIGDMQswCQYD
VQQGEwJQVDERMA8GA1UECAwIS2luZ3N0b24xEDAOBgNVBAcMB0JhYnlsb24xEjAQ
BgNVBAoMCUJ1bWJha2xhdDENMAsGA1UECwwET3JnYTEOMAwGA1UEAwwFUmVlZmEx
HDAaBgkqhkiG9w0BCQEWDXJlZWZAcmVlZi5jb20wHhcNMTgwMjEwMTk0NzU5WhcN
MjAxMTMwMTk0NzU5WjCBgzELMAkGA1UEBhMCUFQxETAPBgNVBAgMCEtpbmdzdG9u
MRAwDgYDVQQHDAdCYWJ5bG9uMRIwEAYDVQQKDAlCdW1iYWtsYXQxDTALBgNVBAsM
BE9yZ2ExDjAMBgNVBAMMBVJlZWZhMRwwGgYJKoZIhvcNAQkBFg1yZWVmQHJlZWYu
Y29tMIICIjANBgkqhkiG9w0BAQEFAAOCAg8AMIICCgKCAgEAwIsO98EaAJVPs5Vd
KmBOHNWYS30WPFyQk7kWlvSHwneOXIwSp7ZXpgeyIYXMFyC8jQ+PG5R9oSo2D6CN
U4BrIx1ZWWOnsKqZlHPO9E0jsQ/uaot1Wc+RMkEuItMgQQylQ9WW/qvqMd9HQDAr
6wmsRbra6IREMFdENSWFmVjiyB/vUB9O7w+ys2YkABKP3n0PwQuUmfwYnjtBeQI8
lH895rHt59i5AZNnCUlrCENUN3yig3FA+Z6I+q7zTr3LcC6Hzp3gYgMHVMraJRpT
G3ZxRIFIiVpvgztl5VofFFhCCBY6N/aguZAAqrW6SNvZDOZ82dhdnZUyXjUsa5vg
dz/NbbT1nQkj/81PMQ6O70yzM1YeYv8MygE9Ft7cUWJcovZeXgCYjzFV6xYdXaGH
JU+bdth4XaNYjzS0fk6ribzGzAEhGDtoC3vq1tH0ebJTlqFTFNaxrUjJ5E531sGx
gjUgEgLwt5HQrEM/NC308ViMMXW9C3oYmKvHJRTasQK1VWmiaIUCydfb5KqGAq6D
sRgL8OLx2iNUSxaPIhFefDphxeBGPZp0S8pCTo5AaJ6WMHk831/XHmtPE6etOFP6
4g4EkTfeb9c2TgCyimHr9cimQDgqKZUh5fpihEI6ck0fm4ZSJcbPGtSY0CZtU9eJ
CME71r/rIWwirfG07JeiojJSvLMCAwEAAaNQME4wHQYDVR0OBBYEFPlzZsk8VkUH
leO+Z7Ty31fE+8j2MB8GA1UdIwQYMBaAFPlzZsk8VkUHleO+Z7Ty31fE+8j2MAwG
A1UdEwQFMAMBAf8wDQYJKoZIhvcNAQELBQADggIBAEiRrb2odSIv1Dexl6Ma/aIp
aMfkLTm0LewoNPEXVsECACh4NcCREYWYqgBphOhtUauAWDy4BsuShELcWOkGt5WJ
ACj/TW7A9R4WixPic2CLLh/N8uuAGrumv7AXTqF6CvAOZ6cTskr6QWlpAA6wz3qf
1Mb9X46ibCKRrRLM96AqdDlgavi+4PDRg9oSW6WJxyKQHw1CaA8F6WXDR8NpsWTD
IpnBdL21rQrWQ6hiPWsVV4iRH4ZTn1GbF/7nHWXT5ZnJ8YHxEOLsWHcI/54EVCxw
wEzmaZWC/LcGTEPcVOlHUg2QTbkWt6zZFvH1mKgc7NxqRxGYkBbrFkecym7z7iI9
tk1sBpd+syp10anlyWuByCIZX6c8Ar+7LXzpIsbJcov0MtVR/+ksP5N3uzYWIbXP
HmW7Jg/jzC/CNhUwSKJJwVGaaU++2dCNYWs+3HEIL1gmV4ZL7VmukpknDRcKW6Yx
hH4t0Ur7/mseRE0QPuEz3Ds6CGg9+Zu4N1muA7Kqff2bbfrpNGKz9wJgtBR+N7Ku
bWhjbN1ftYSPWZkJdNj4X6oyfC7gdSYn/9UW4a7X0kQPYK8TVpo48fKyGmunYjCZ
cB0MyyU92Y1aoIZxOoHFpLIRm3EU87dbeDkEF31SWlLA1OvypbdYEFHwB7N+hpXE
AOC4eWXVYw1W/Qy7qVUL
-----END CERTIFICATE-----
