-----BEGIN CERTIFICATE-----
MIIEBjCCAe4CFEAnX6HC6fq3GnXmLwT3cxqbRvKQMA0GCSqGSIb3DQEBCwUAMEEx
CzAJBgNVBAYTAlBUMQswCQYDVQQIDAJMWDESMBAGA1UECgwJQnVtYmFrbGF0MREw
DwYDVQQDDAhodHRweC1jYTAgFw0yMTAxMzAxNTIzMDhaGA8zMDAxMDQwMzE1MjMw
OFowPDELMAkGA1UEBhMCUFQxCzAJBgNVBAgMAkxYMRIwEAYDVQQKDAlCdW1iYWts
YXQxDDAKBgNVBAMMA2RvaDCCASIwDQYJKoZIhvcNAQEBBQADggEPADCCAQoCggEB
ALoPIoQ0hnI6azw1UNJ2V4AxmMf3lBOVS5qHuIVHs5eegB4NPiJ0orxdW7Ghpc2+
rR7IflpiewDfLmw4kA4/WGRr7NujnmtuNQrX9eKOPY2ag2HgMKc4GvsnyOmnd2b2
dxbFX4EZOvrNP2t/yiFJRc+ko57UjenbrFFd9aZoNaHndVqaLJv5vz6moGTb0Xtd
wJbuxEVuUMtFbbqQjqZ78a04eQWw4f/VPCUUJMVBT2C4sy7QMlHX5kEuIYjCbGHP
YKCUiWKs3HB/ZkI+m/tnRu0ZPOUDxMTSARJitfgnhuajQQHtC2KgxzytksdqMiCa
zUrHpoSr/GelqPM9isFKIq8CAwEAATANBgkqhkiG9w0BAQsFAAOCAgEAT1u+UMi2
eIZkAw9aFkCvTAfkKtIkO21eIKbK/PYo5jmR8umOkOfAh06jgp+WiE4cxFyTLsjI
CpPx83/5R0q5rL21DIbP847BWMjeulec/1qusEoWdeO3j+88f7pYGhCQscBYULXk
V6OMDS0tAP1fW64M9eXJ74B0XH4TCg7zJcrYOOuU+DaUJLixu3m7K7YF1+vfVDJ4
EPdSEpEPwiiREydXiOkw3acNbI93WB0r+LeYNPliEGZG4gY95xWK9qrDwOwcGs1W
+SpjGReIl5WpSXnDL1IxOgWKN5qulxI2eFLPGCjXC+9yx2dM68DKHu84mcLzbtvF
FcZ1qjyp54mdMiG6I9DYNRePqA2H9uiGULZGZs0e874BSsGv9ISBeE67gLbRYSX2
pemIJIgNlI/oIkQQ5PaFfaRCBXKixNEM348FcXqMdNZuYLruaZbKlGfALYKHMbOD
XIii8OaqYYcYGwQ1Jv4rppLnqcsQvvRuokOylLHvVvqVlB8gLUOQMBAiq2NuLEzH
BqM2jYs0Xg/bOkXJWbFylCAfOrwBb+M6UgkH8NvreE1af8Zmc+IUVE+HGcCOw1uZ
vQ6dm/JCLd9+quYqRXtw0+GJD6DmfF4FPojKHZCBAs5QVB8GDSxIC95zFexIYp39
SQldRsTczU/5O5+AhneHqbseSGTqI0UsPwY=
-----END CERTIFICATE-----
Certificate:
    Data:
        Version: 3 (0x2)
        Serial Number: 1 (0x1)
        Signature Algorithm: sha256WithRSAEncryption
        Issuer: C=PT, ST=LX, O=Bumbaklat, CN=httpx-ca
        Validity
            Not Before: Jan 30 15:23:08 2021 GMT
            Not After : Jan 30 15:23:08 2022 GMT
        Subject: C=PT, ST=LX, O=Bumbaklat, OU=nghttp2, CN=nghttp2
        Subject Public Key Info:
            Public Key Algorithm: rsaEncryption
                RSA Public-Key: (2048 bit)
                Modulus:
                    00:c0:76:20:b8:6d:99:78:5c:05:e2:7f:ef:1c:9c:
                    d8:73:ae:d4:a1:7c:99:e2:f2:59:fd:2b:09:f7:19:
                    3a:38:6d:ef:80:be:ce:6b:9d:b3:8e:46:be:ac:85:
                    2c:99:e9:77:a8:de:48:d3:53:61:70:77:00:aa:73:
                    af:2c:1a:80:69:a5:67:b0:27:ad:a8:3e:1e:f2:d7:
                    f1:6f:a6:00:ee:bf:9d:77:9a:00:ba:ea:7b:a4:81:
                    c2:39:04:d6:d1:e2:40:e0:a4:be:b0:71:c0:ef:c2:
                    52:ef:86:9c:7e:4d:12:77:f2:51:cb:bb:e8:d5:f7:
                    b5:b7:5d:ab:67:7d:76:8a:78:1e:66:40:53:d7:ec:
                    cd:cf:6f:11:97:83:2b:d8:ca:d0:24:91:1f:65:3d:
                    52:d7:e6:73:c6:71:c4:51:2a:02:d6:11:9b:22:fc:
                    f0:5b:d2:6c:f7:33:7b:43:a2:6a:ac:cb:fb:02:ef:
                    38:47:a6:ab:4e:f8:81:cd:cf:86:1a:8a:22:f4:eb:
                    85:be:dc:af:a6:5b:49:4c:d8:f9:64:20:10:fd:3d:
                    0a:28:47:b2:7f:c1:e9:f0:f7:56:a3:5d:c0:db:57:
                    73:a7:ad:bd:61:25:b2:4c:4c:c9:dd:aa:d1:fc:80:
                    71:49:20:a0:a7:55:c6:ff:dc:5d:44:b7:5e:91:ec:
                    38:77
                Exponent: 65537 (0x10001)
        X509v3 extensions:
            X509v3 Basic Constraints: 
                CA:FALSE
            X509v3 Subject Alternative Name: 
                DNS:nghttp2, DNS:another, DNS:another2
            X509v3 Subject Key Identifier: 
                2E:63:AD:2E:8A:C7:7A:16:B4:52:0E:C6:0A:88:51:74:60:07:6B:34
    Signature Algorithm: sha256WithRSAEncryption
         2a:70:05:46:3f:28:4b:50:60:c6:0a:ac:46:6b:7f:4b:f1:1e:
         8b:c3:52:c9:35:1f:3d:ad:23:73:f1:7a:54:5f:de:91:e9:cb:
         2b:b4:77:9e:44:56:76:78:0b:ca:5f:c6:00:c8:4f:04:c5:47:
         74:83:79:98:38:f1:da:ad:10:b2:4a:7f:2e:78:a6:c3:70:63:
         5c:9e:07:e7:ab:b5:f4:44:6a:8d:86:2c:a3:0c:31:3b:89:ce:
         c7:ab:82:2e:9f:57:88:31:9f:46:80:0f:86:8f:ef:2f:35:36:
         9b:2d:51:61:93:86:da:17:96:94:1b:44:75:9d:52:f2:be:84:
         4f:da:11:80:9b:f5:47:a8:ab:cb:c2:ae:bf:e3:71:8b:3b:5a:
         37:5d:b9:aa:36:b8:b8:13:b0:6d:77:17:c7:ee:24:9b:3b:f3:
         36:14:f3:0f:48:d7:18:e6:40:4d:be:c6:da:ff:4d:18:78:eb:
         be:09:47:b9:fe:65:f1:ed:32:2c:dd:be:26:a4:a8:4f:9b:c0:
         96:6a:32:d8:4a:9a:45:93:f4:43:44:43:72:be:8d:71:53:f1:
         a2:9c:ad:d5:8f:8e:76:6e:84:e1:c7:0e:06:33:a4:bc:19:d5:
         b8:ab:f5:58:80:50:d5:87:ca:ac:2a:e6:49:f4:8c:b9:37:7b:
         bf:b8:3d:af:db:75:49:75:9b:7e:1a:f0:84:30:b7:06:c1:e0:
         a4:1b:be:36:d8:fd:42:fd:0a:ea:a1:b5:7a:e0:dc:f1:01:bd:
         73:64:df:c2:3a:7b:8c:3f:f1:17:e0:70:1f:9c:bd:a3:1d:cb:
         68:53:d2:ee:50:7b:07:4f:d5:f0:a7:4e:d0:d3:41:8f:d3:70:
         a2:c8:32:4b:f4:88:4d:0c:4e:71:a7:a4:bc:7c:45:b9:f4:be:
         6c:24:72:76:08:8f:5a:22:7b:c0:83:b4:60:1f:5f:69:ea:6c:
         11:a4:a6:f8:c9:21:5e:44:60:7c:51:17:c0:a1:8a:79:a7:2b:
         b2:ca:6d:8c:b9:8d:5f:33:8e:9c:f3:68:69:f5:35:9b:e7:2d:
         29:bb:69:2f:d5:f5:d7:d7:7b:fd:8b:24:87:a8:e0:06:bb:f7:
         b4:5d:06:45:5d:cb:5e:38:24:e1:73:01:c9:5a:bd:bc:19:3b:
         ee:fa:8e:25:c5:8e:fc:8d:66:8b:ab:56:ae:4c:60:c1:42:1f:
         05:eb:24:87:72:fc:ca:9f:99:93:2b:69:2b:84:36:4d:26:7a:
         c4:4c:27:c6:76:ff:47:49:07:c3:f4:75:3b:17:59:dd:4e:3e:
         4f:e7:1a:f7:62:2b:f7:c5:49:62:2a:2f:96:7e:c6:78:35:6f:
         24:dc:a8:42:46:12:67:dc
-----BEGIN CERTIFICATE-----
MIIEYTCCAkmgAwIBAgIBATANBgkqhkiG9w0BAQsFADBBMQswCQYDVQQGEwJQVDEL
MAkGA1UECAwCTFgxEjAQBgNVBAoMCUJ1bWJha2xhdDERMA8GA1UEAwwIaHR0cHgt
Y2EwHhcNMjEwMTMwMTUyMzA4WhcNMjIwMTMwMTUyMzA4WjBSMQswCQYDVQQGEwJQ
VDELMAkGA1UECAwCTFgxEjAQBgNVBAoMCUJ1bWJha2xhdDEQMA4GA1UECwwHbmdo
dHRwMjEQMA4GA1UEAwwHbmdodHRwMjCCASIwDQYJKoZIhvcNAQEBBQADggEPADCC
AQoCggEBAMB2ILhtmXhcBeJ/7xyc2HOu1KF8meLyWf0rCfcZOjht74C+zmuds45G
vqyFLJnpd6jeSNNTYXB3AKpzrywagGmlZ7Anrag+HvLX8W+mAO6/nXeaALrqe6SB
wjkE1tHiQOCkvrBxwO/CUu+GnH5NEnfyUcu76NX3tbddq2d9dop4HmZAU9fszc9v
EZeDK9jK0CSRH2U9Utfmc8ZxxFEqAtYRmyL88FvSbPcze0OiaqzL+wLvOEemq074
gc3PhhqKIvTrhb7cr6ZbSUzY+WQgEP09CihHsn/B6fD3VqNdwNtXc6etvWElskxM
yd2q0fyAcUkgoKdVxv/cXUS3XpHsOHcCAwEAAaNTMFEwCQYDVR0TBAIwADAlBgNV
HREEHjAcggduZ2h0dHAyggdhbm90aGVygghhbm90aGVyMjAdBgNVHQ4EFgQULmOt
LorHeha0Ug7GCohRdGAHazQwDQYJKoZIhvcNAQELBQADggIBACpwBUY/KEtQYMYK
rEZrf0vxHovDUsk1Hz2tI3PxelRf3pHpyyu0d55EVnZ4C8pfxgDITwTFR3SDeZg4
8dqtELJKfy54psNwY1yeB+ertfREao2GLKMMMTuJzsergi6fV4gxn0aAD4aP7y81
NpstUWGThtoXlpQbRHWdUvK+hE/aEYCb9Ueoq8vCrr/jcYs7Wjdduao2uLgTsG13
F8fuJJs78zYU8w9I1xjmQE2+xtr/TRh4674JR7n+ZfHtMizdviakqE+bwJZqMthK
mkWT9ENEQ3K+jXFT8aKcrdWPjnZuhOHHDgYzpLwZ1bir9ViAUNWHyqwq5kn0jLk3
e7+4Pa/bdUl1m34a8IQwtwbB4KQbvjbY/UL9CuqhtXrg3PEBvXNk38I6e4w/8Rfg
cB+cvaMdy2hT0u5QewdP1fCnTtDTQY/TcKLIMkv0iE0MTnGnpLx8Rbn0vmwkcnYI
j1oie8CDtGAfX2nqbBGkpvjJIV5EYHxRF8ChinmnK7LKbYy5jV8zjpzzaGn1NZvn
LSm7aS/V9dfXe/2LJIeo4Aa797RdBkVdy144JOFzAclavbwZO+76jiXFjvyNZour
Vq5MYMFCHwXrJIdy/MqfmZMraSuENk0mesRMJ8Z2/0dJB8P0dTsXWd1OPk/nGvdi
K/fFSWIqL5Z+xng1byTcqEJGEmfc
-----END CERTIFICATE-----
-----BEGIN CERTIFICATE-----
MIIFZTCCA02gAwIBAgIUbLgX8AsZ2iKORbV6YhbFbBR1MeEwDQYJKoZIhvcNAQEL
BQAwQTELMAkGA1UEBhMCUFQxCzAJBgNVBAgMAkxYMRIwEAYDVQQKDAlCdW1iYWts
YXQxETAPBgNVBAMMCGh0dHB4LWNhMCAXDTIxMDEzMDE1MjMwOFoYDzMwMDEwNDAz
MTUyMzA4WjBBMQswCQYDVQQGEwJQVDELMAkGA1UECAwCTFgxEjAQBgNVBAoMCUJ1
bWJha2xhdDERMA8GA1UEAwwIaHR0cHgtY2EwggIiMA0GCSqGSIb3DQEBAQUAA4IC
DwAwggIKAoICAQDC1GN0bFkvYKTqnuh2RpH7Zsnl6uw4w7ZiIL9WZ2NzVOSKcfEe
YZVIFSdMSVyfSnhcMXfyrbjpZBVHXrKLcoM6PblW/F+uHudibhl5Ki3UFtchcVe9
yqv6IWR1tAD9AmyMHnCAkOXe6FKykzSEQw9Ait/HomlkdN/s/2yn3xAQkV23DCym
3EVMk0zt4oeFcaV35rm+XEeNfRDKWt6hikJXigZKb3WbyR2jkZg/eGwRB8/W0Qu4
1lBhDaxfyNQ7lygEwrSO5j/rIjsH5ibc/uJua1ZTK4DmcH0XmkhhljuuLPAWU6KH
nOUfgjLC6EIdk2apiatFRI6Q8lbyAHXuKPzQElcCjYfCPzNt9C+jjL9DxIY4OFXE
HJIn/UhFywwsOcN1Kpx7tZDe/xtUZ2ml/d27I86u5BjgSvXhkFw5FwQ3GhyL/Lgv
3w2zg7rxv/ERvsbpiQmt6wNeB5w/FoeyaIqEX2cpks4Is8NR6bW6p1kFMLzflTWy
y5ltqd0qO3N9nvOfLTUakNeYyy040cXWzJxW72v3U5UD3tDbg1FEnKEwmSRsng7+
ansRFG2hYHANiQD9CeET7T0QiH/HZlpiwcta4f7T3vFPLIU+sKWrJ4jZrepgc4ZO
WE3btXiniBpOfij0M6/MHNHB6yRn/O6xR0g92EpBGH7gEzM3twfOwcmn1wIDAQAB
o1MwUTAdBgNVHQ4EFgQU3IDaz7QQtxSgk8m8qR5NY957D9owHwYDVR0jBBgwFoAU
3IDaz7QQtxSgk8m8qR5NY957D9owDwYDVR0TAQH/BAUwAwEB/zANBgkqhkiG9w0B
AQsFAAOCAgEAJSstNiKNcGmCLWdEI6OD589gBc6+FnJdneebW3UnUGSTxkMsxbsK
KzsDFJN9h6/GQu0BR259RzCIDAO4GgyztdPqrTH3kCKyOdChONwRI8+mS05KU7OO
/FdUbVjAw6omJTW25eJ339vAMuUs/lTn+hSS8wBaELBmEKGIAEaWxVuvcvOU8Iv+
7Nj/hTwlwZxAip733jEb7bEcRizp6L3Zw1DXzPkM3nLtE3fhQylyNh/W2vkWuvmF
xHdra+r3HYJ73GlFmOCElucz7M+my0pvSk2izLyG3Gg1kcs8glcUMSV/hKNJkdk9
VlB4Iso4PfXdSzUNcv7TK40mmIP8a2prhi3C/s7BSnpJJ/uwNI4qqTsVtzCGq7RZ
1Ga92nBWrBrcUmalls9bx2nkUBnT2ClSbNM+KxCdkOia/rsjWdjqRBdUvnf9F7a8
gIOtqJT4rWDf9thghfxcycusJm1AyWrOJe3LCPXvXUwknS/IF7z+f2zjFpx1Wev6
hU3Ch3x8oB/nfwnRULolKjLwhbMGhIaelPmr9jp22Z8GPBDLny9wthrJz2CsGB0/
MUi3awCkkmMyW1DRqHas2TqYdfOlX4FOjn1P+cAi1Hsvha5cauXvVFwGv2FUmFJ7
e1Ru4lEtAe9L80omf27oHYCeba72Ax3kgdcb4+ujS7d8LfapFZHDLhs=
-----END CERTIFICATE-----
