-----BEGIN CERTIFICATE-----
MIIEBjCCAe4CFHQ2yiEKtetPjxAqA9EGg+Svm7leMA0GCSqGSIb3DQEBCwUAMEEx
CzAJBgNVBAYTAlBUMQswCQYDVQQIDAJMWDESMBAGA1UECgwJQnVtYmFrbGF0MREw
DwYDVQQDDAhodHRweC1jYTAgFw0yMzA5MDgyMTU0NTJaGA8zMDAzMTExMDIxNTQ1
MlowPDELMAkGA1UEBhMCUFQxCzAJBgNVBAgMAkxYMRIwEAYDVQQKDAlCdW1iYWts
YXQxDDAKBgNVBAMMA2RvaDCCASIwDQYJKoZIhvcNAQEBBQADggEPADCCAQoCggEB
AJe9R/yjyjRl62IsM6FJtjXYJGvsusjh+ppmNGJDKnEsxaeTR9zkTQduh901Z1j/
ZewwDXcTfWjbo1uEYuDf9LwqSQ3W4zwXHlPir1TcCQk+I+gjJ/uQYk7yi3Svi/Hv
gpuSxR/FaseeSwauYKdJaBeOLO4EndEtParZNwH7HUkrAj8/w4Jp9GzswnZLdx81
bwAQp3O7Qqa2Z1ZNV5hPc5AK8wOSsTSvswWdKp/FkF2tq+AoKt83KC+q8OAbdJTy
PK7HAFc3Bu0ng1JLU8v1ysNeyKcXQ4uOaA0PI7FNBzBElObml5WBowG5pqWa5Bic
+7CD3RTkJyvN9AJ98z3ZQ2MCAwEAATANBgkqhkiG9w0BAQsFAAOCAgEAGlKBp2jN
bLHYpJU5DHpOpXw3LmhFh2et4lY+JQSgww3QwsMlW4WmUaME4n0R16NGVvFqcGSZ
Z4HpqcRXgaI+jHxORYOYJADHsNjtDQxw/aaH8HPQuAFdBVziuQtfYUqT5T5eHhyb
Khch60QG7vvnseC9ZAqHlVGoucDxAYJRPSO0b+BgpSf0vMeEDj94xaZOiQp6G+sD
V00hVD8+7U2qjF0OwwYprr6JsdoHnPWibAfqxET8r6gW9rG6UWJYKp0pK6fYflZV
XQE0rN4SBiN66zyhX6YI0D6M3CP/8E4z2ZRZT5ALdLWpnnvfwlwzSWEUIy2tIDsJ
yS9oO9P1oGF6dAHr87MgjIlisp3qtd9Vf78G6sJZDymGBHtTjt3HHlXlr1idxGPS
IMqzbCHG2tTtLuNfx3A2q/RaCXZZ9J/A3xohxT//WNh4g8yccnUQFGTINrh304NI
hsNMjGxmSOwgqUIK9cXVY3pT/v69dd9vpYh0YvzCtqJH4wC+XUfgBC2WiiZwI3po
Xz5yorpczcZvESS5KBfHJhuAclJsztUBydJi8BKT6wWmLkai8QldCW6+PIwx9yzz
Rez87Cf5ZW+x3zThW5ok7aTVvuAxA5hEdhtbcAf855vBh/weVUHQ8OWJhknlCHH8
CYDM7kFgJNpCJzzED5GN+kSHXKbhYxiOF7c=
-----END CERTIFICATE-----
Certificate:
    Data:
        Version: 3 (0x2)
        Serial Number: 2 (0x2)
        Signature Algorithm: sha256WithRSAEncryption
        Issuer: C=PT, ST=LX, O=Bumbaklat, CN=httpx-ca
        Validity
            Not Before: Sep  8 21:54:52 2023 GMT
            Not After : Sep  7 21:54:52 2024 GMT
        Subject: C=PT, ST=LX, O=Bumbaklat, CN=localhost-server
        Subject Public Key Info:
            Public Key Algorithm: rsaEncryption
                RSA Public-Key: (2048 bit)
                Modulus:
                    00:93:a1:86:5e:72:19:b8:58:8a:cd:ac:6b:13:51:
                    dc:e6:b9:15:86:de:6b:be:b8:74:e2:cf:2b:ef:05:
                    b0:0e:c9:c6:43:1f:80:96:2d:8c:34:b4:89:c5:f3:
                    7b:31:79:81:09:cd:91:c5:34:99:b6:78:a1:44:12:
                    93:7a:11:12:0c:59:3e:4b:78:38:87:54:74:a1:60:
                    a9:d7:81:5a:b4:d9:8e:d1:01:6e:b0:c1:61:c6:01:
                    df:2b:fc:f6:fa:94:61:0a:30:41:49:c4:a1:2d:42:
                    fe:24:6c:29:b6:b7:79:7c:14:c2:0b:07:82:e4:ad:
                    b1:ab:06:63:f5:96:71:8f:74:0b:54:bc:4a:8f:65:
                    e6:15:fe:3f:8b:7c:2d:e0:da:4d:68:1c:77:c7:0a:
                    b9:25:00:96:72:f3:d3:12:e6:2a:55:78:8b:c8:98:
                    fd:4b:29:1a:b4:34:32:62:a4:69:5d:8b:3f:59:0e:
                    76:3a:89:2b:6e:35:3e:02:61:2e:af:f0:2b:a0:1e:
                    d9:bd:a7:c9:0a:86:5b:a7:81:7d:98:10:b9:1b:0a:
                    62:0d:44:fc:0c:d5:c1:f9:72:91:bb:f5:64:87:a0:
                    49:51:3c:de:8c:60:70:0e:ae:53:85:28:90:b0:21:
                    0c:d5:e0:e7:a3:d2:cd:0b:6c:13:a9:f8:ff:7d:80:
                    51:19
                Exponent: 65537 (0x10001)
        X509v3 extensions:
            X509v3 Basic Constraints: 
                CA:FALSE
            X509v3 Subject Alternative Name: 
                DNS:localhost, IP Address:127.0.0.1, IP Address:0:0:0:0:0:0:0:1
            X509v3 Subject Key Identifier: 
                4B:71:10:43:E1:A0:DD:E3:64:8B:1E:99:1F:E9:7C:A6:55:DE:66:0C
    Signature Algorithm: sha256WithRSAEncryption
         8d:47:72:9b:23:11:e6:9a:8d:56:9f:3f:c7:1a:95:91:a3:2e:
         d9:4f:53:07:00:ff:c3:fe:fc:7a:2e:69:e1:19:02:72:25:15:
         0a:00:ed:3e:15:71:3b:da:2d:e1:92:92:61:d1:f4:71:f0:1b:
         f1:ee:47:db:ec:89:09:be:45:fb:0f:cd:f7:38:23:75:18:1a:
         ca:bf:75:cf:1a:4d:e9:c2:03:34:4f:66:92:5a:87:40:92:11:
         6c:57:03:df:33:fe:a6:eb:f3:ee:c9:7a:26:91:44:6b:64:d2:
         ab:59:37:5b:ec:8d:2e:15:1a:52:c9:69:bc:97:59:ba:7e:3b:
         00:d6:79:8c:fe:c1:2a:c0:58:df:ab:24:3c:8e:4f:f9:cb:2a:
         b5:df:dc:cf:02:c9:bf:13:17:fb:f5:1d:c4:f8:5e:96:ee:0b:
         11:70:f0:94:a0:6f:fd:56:bf:a2:34:c6:fc:77:74:f5:5c:02:
         6d:23:b7:5c:21:ad:40:68:79:5e:e5:73:89:4e:90:01:e1:40:
         4a:8b:cf:39:1d:13:c8:8c:41:93:bc:d5:83:d4:8f:4e:1a:2b:
         5b:ee:92:8e:20:ea:d1:a5:f6:13:5c:86:af:b0:1a:3d:4e:b9:
         3b:f5:49:ef:4a:43:8b:23:bf:a9:a8:4f:e8:32:f3:bf:89:bb:
         78:96:a1:45:d6:2d:e7:16:31:44:c2:e3:90:66:fa:78:8e:89:
         fc:70:c5:cc:f0:9f:ef:f4:27:6b:25:b1:c8:f6:5a:97:cd:53:
         29:93:7f:e2:e0:82:07:04:4a:79:2a:b2:71:d3:67:d4:6a:02:
         16:7c:98:89:7d:88:20:48:a2:5b:50:a7:2c:72:4a:72:90:4e:
         b1:b1:c9:97:c3:55:29:11:7f:a7:a1:21:19:6d:d4:57:d1:fe:
         17:7b:fb:83:2e:ef:de:8d:bc:dd:3c:48:44:29:b0:24:59:2f:
         65:42:62:04:99:70:4d:37:d0:4a:d1:01:b9:d5:ab:62:ac:ab:
         45:83:5a:1f:ae:3a:51:c5:1f:55:a3:c6:31:9e:1c:e9:93:26:
         15:b1:d3:36:d8:a2:c9:d6:84:a7:f7:52:af:c3:3b:71:c1:ae:
         0f:e3:0c:ea:85:4e:76:f0:27:88:56:83:2c:ad:a5:f2:52:26:
         bf:ec:f4:15:29:e3:ad:52:4a:03:74:9e:d7:86:ba:66:9c:bb:
         05:81:62:47:62:42:dd:39:61:b4:bd:12:36:c2:24:9c:f4:b6:
         de:c2:fa:00:f4:7e:48:40:27:e8:b2:51:5f:0f:1e:37:87:a9:
         70:f8:2a:c1:39:3b:fc:c9:e1:1a:fe:23:66:da:47:05:fc:e0:
         73:69:04:36:c8:80:cb:9e
-----BEGIN CERTIFICATE-----
MIIEXzCCAkegAwIBAgIBAjANBgkqhkiG9w0BAQsFADBBMQswCQYDVQQGEwJQVDEL
MAkGA1UECAwCTFgxEjAQBgNVBAoMCUJ1bWJha2xhdDERMA8GA1UEAwwIaHR0cHgt
Y2EwHhcNMjMwOTA4MjE1NDUyWhcNMjQwOTA3MjE1NDUyWjBJMQswCQYDVQQGEwJQ
VDELMAkGA1UECAwCTFgxEjAQBgNVBAoMCUJ1bWJha2xhdDEZMBcGA1UEAwwQbG9j
YWxob3N0LXNlcnZlcjCCASIwDQYJKoZIhvcNAQEBBQADggEPADCCAQoCggEBAJOh
hl5yGbhYis2saxNR3Oa5FYbea764dOLPK+8FsA7JxkMfgJYtjDS0icXzezF5gQnN
kcU0mbZ4oUQSk3oREgxZPkt4OIdUdKFgqdeBWrTZjtEBbrDBYcYB3yv89vqUYQow
QUnEoS1C/iRsKba3eXwUwgsHguStsasGY/WWcY90C1S8So9l5hX+P4t8LeDaTWgc
d8cKuSUAlnLz0xLmKlV4i8iY/UspGrQ0MmKkaV2LP1kOdjqJK241PgJhLq/wK6Ae
2b2nyQqGW6eBfZgQuRsKYg1E/AzVwflykbv1ZIegSVE83oxgcA6uU4UokLAhDNXg
56PSzQtsE6n4/32AURkCAwEAAaNaMFgwCQYDVR0TBAIwADAsBgNVHREEJTAjggls
b2NhbGhvc3SHBH8AAAGHEAAAAAAAAAAAAAAAAAAAAAEwHQYDVR0OBBYEFEtxEEPh
oN3jZIsemR/pfKZV3mYMMA0GCSqGSIb3DQEBCwUAA4ICAQCNR3KbIxHmmo1Wnz/H
GpWRoy7ZT1MHAP/D/vx6LmnhGQJyJRUKAO0+FXE72i3hkpJh0fRx8Bvx7kfb7IkJ
vkX7D833OCN1GBrKv3XPGk3pwgM0T2aSWodAkhFsVwPfM/6m6/PuyXomkURrZNKr
WTdb7I0uFRpSyWm8l1m6fjsA1nmM/sEqwFjfqyQ8jk/5yyq139zPAsm/Exf79R3E
+F6W7gsRcPCUoG/9Vr+iNMb8d3T1XAJtI7dcIa1AaHle5XOJTpAB4UBKi885HRPI
jEGTvNWD1I9OGitb7pKOIOrRpfYTXIavsBo9Trk79UnvSkOLI7+pqE/oMvO/ibt4
lqFF1i3nFjFEwuOQZvp4jon8cMXM8J/v9CdrJbHI9lqXzVMpk3/i4IIHBEp5KrJx
02fUagIWfJiJfYggSKJbUKcsckpykE6xscmXw1UpEX+noSEZbdRX0f4Xe/uDLu/e
jbzdPEhEKbAkWS9lQmIEmXBNN9BK0QG51atirKtFg1ofrjpRxR9Vo8YxnhzpkyYV
sdM22KLJ1oSn91Kvwztxwa4P4wzqhU528CeIVoMsraXyUia/7PQVKeOtUkoDdJ7X
hrpmnLsFgWJHYkLdOWG0vRI2wiSc9LbewvoA9H5IQCfoslFfDx43h6lw+CrBOTv8
yeEa/iNm2kcF/OBzaQQ2yIDLng==
-----END CERTIFICATE-----
Certificate:
    Data:
        Version: 3 (0x2)
        Serial Number: 1 (0x1)
        Signature Algorithm: sha256WithRSAEncryption
        Issuer: C=PT, ST=LX, O=Bumbaklat, CN=httpx-ca
        Validity
            Not Before: Sep  8 21:54:51 2023 GMT
            Not After : Sep  7 21:54:51 2024 GMT
        Subject: C=PT, ST=LX, O=Bumbaklat, OU=nghttp2, CN=nghttp2
        Subject Public Key Info:
            Public Key Algorithm: rsaEncryption
                RSA Public-Key: (2048 bit)
                Modulus:
                    00:f5:66:92:db:72:b8:67:8a:e6:5f:a6:4e:53:95:
                    7f:8e:9a:af:59:ea:d7:17:dc:70:f8:2d:92:6b:c2:
                    f7:19:af:cf:6a:65:8e:b8:02:10:e7:de:21:0a:82:
                    f9:88:1f:46:03:0c:0a:71:53:a3:94:0e:36:fa:86:
                    a1:1d:56:73:35:6c:80:4a:33:73:f9:7b:a6:ca:8d:
                    c9:5e:2d:c7:c8:e8:d8:f4:44:8a:91:27:2a:c3:2c:
                    13:bb:0b:6e:f1:4b:32:98:fc:61:ff:64:53:9a:02:
                    d2:7e:80:93:9a:48:32:d8:9c:a3:52:50:44:bd:43:
                    04:52:84:a5:2a:e6:a7:a4:e8:dc:72:5a:c6:cb:7f:
                    21:2d:fb:55:f5:ac:99:b6:b0:f5:d7:06:1c:ae:67:
                    46:ca:f6:17:35:4c:cc:0b:26:92:65:52:62:6f:d3:
                    ca:49:e7:ed:4a:22:48:0a:e9:77:f6:3e:f7:b7:6b:
                    60:e9:78:0a:64:d4:33:2b:04:31:80:57:56:74:65:
                    8d:2a:7f:4b:b2:f6:81:e4:13:04:82:34:68:9e:6a:
                    73:05:46:6c:7c:e7:bc:fa:08:dc:54:4e:71:22:1f:
                    bd:50:c5:0c:8b:27:f9:7b:be:12:f4:bc:32:3b:a4:
                    13:17:c0:b7:6c:9a:2e:28:06:5e:7b:45:28:ef:e1:
                    5b:89
                Exponent: 65537 (0x10001)
        X509v3 extensions:
            X509v3 Basic Constraints: 
                CA:FALSE
            X509v3 Subject Alternative Name: 
                DNS:nghttp2, DNS:another, DNS:another2
            X509v3 Subject Key Identifier: 
                F8:0A:41:E2:01:D3:E0:64:2D:3F:D8:3C:30:67:0B:50:02:47:7E:55
    Signature Algorithm: sha256WithRSAEncryption
         43:77:3d:65:fe:36:fa:7f:94:4a:04:2f:25:75:a4:2d:62:a8:
         94:f6:7c:75:6a:ec:35:0c:7f:32:ec:43:6e:a6:37:4b:8d:71:
         50:f2:81:02:f6:6c:a6:f7:42:4e:93:62:d2:78:0b:b0:d0:4e:
         bc:4b:48:9e:94:66:b5:15:3c:f9:4e:07:7b:09:e1:a0:5f:b1:
         01:46:ad:b1:7c:fb:42:61:d2:63:ac:c3:f2:50:2d:40:53:38:
         88:b0:30:e7:4b:c3:44:da:dd:de:ac:73:24:f6:5a:a9:d7:7a:
         6d:a1:bd:76:65:a4:30:2c:c9:47:86:25:32:92:cc:c6:8b:c4:
         f9:0b:78:9d:7f:81:e9:3b:78:fd:76:8e:04:7a:71:ba:ff:14:
         f7:88:a7:cd:33:50:2f:17:eb:35:82:38:89:7d:db:4f:dd:e8:
         bb:9a:e7:35:2d:f9:11:56:2c:18:0a:20:42:c8:6d:6c:4d:1c:
         a0:a1:df:8f:e4:f9:3e:d5:db:6b:32:52:ec:c9:d0:b1:22:09:
         6f:2e:58:1b:9a:fc:02:3a:18:36:4a:96:a7:a7:3f:85:54:ca:
         e3:ec:83:f7:9d:dc:5b:6b:0b:e9:37:91:65:3a:f9:b8:74:45:
         a0:ea:36:de:81:af:24:04:ed:25:a7:b0:3d:ef:a0:f7:80:67:
         c3:c2:9d:90:95:19:39:2b:78:3e:ee:43:0e:c0:7e:cb:3b:6d:
         1f:ac:8e:bb:fa:cc:01:44:3f:ba:51:7b:05:d0:7d:7e:10:6f:
         53:5a:db:2a:62:90:17:33:d2:a3:e2:ae:7b:9f:18:1b:08:7c:
         b6:63:eb:98:a1:c3:75:c4:71:78:fe:ff:ef:b9:00:f0:4d:2c:
         c9:75:c5:43:3e:f6:2f:31:a4:a8:dc:70:a3:d2:5d:29:d1:fc:
         d3:83:3b:5c:34:70:73:7b:7b:7b:c5:45:ab:3c:bf:46:4e:09:
         e4:03:a0:54:fb:64:4b:c9:f2:00:88:b7:25:01:32:06:c8:28:
         f3:7d:3b:3c:9c:39:f2:d1:2d:25:d7:a9:a2:b0:5d:43:7b:c9:
         8a:b0:48:0e:e3:c4:bc:6d:1d:d5:bd:fa:67:e8:c6:05:7b:a7:
         e2:b2:86:bb:e7:76:99:8f:af:da:94:26:1f:3b:e4:8d:7f:de:
         8d:8b:0b:88:63:f0:84:a8:97:08:be:62:aa:3e:6c:45:78:8b:
         ea:5e:ed:66:ca:cd:36:a9:f5:6d:5d:ba:ca:6a:52:67:3f:f7:
         45:20:a9:b7:38:9d:42:1d:d2:0e:30:80:74:09:e0:a6:cc:c3:
         cd:ca:56:05:57:cb:b7:30:5d:fb:5a:e0:65:71:f8:5f:45:5c:
         c7:b0:55:b6:62:6d:69:22
-----BEGIN CERTIFICATE-----
MIIEYTCCAkmgAwIBAgIBATANBgkqhkiG9w0BAQsFADBBMQswCQYDVQQGEwJQVDEL
MAkGA1UECAwCTFgxEjAQBgNVBAoMCUJ1bWJha2xhdDERMA8GA1UEAwwIaHR0cHgt
Y2EwHhcNMjMwOTA4MjE1NDUxWhcNMjQwOTA3MjE1NDUxWjBSMQswCQYDVQQGEwJQ
VDELMAkGA1UECAwCTFgxEjAQBgNVBAoMCUJ1bWJha2xhdDEQMA4GA1UECwwHbmdo
dHRwMjEQMA4GA1UEAwwHbmdodHRwMjCCASIwDQYJKoZIhvcNAQEBBQADggEPADCC
AQoCggEBAPVmkttyuGeK5l+mTlOVf46ar1nq1xfccPgtkmvC9xmvz2pljrgCEOfe
IQqC+YgfRgMMCnFTo5QONvqGoR1WczVsgEozc/l7psqNyV4tx8jo2PREipEnKsMs
E7sLbvFLMpj8Yf9kU5oC0n6Ak5pIMtico1JQRL1DBFKEpSrmp6To3HJaxst/IS37
VfWsmbaw9dcGHK5nRsr2FzVMzAsmkmVSYm/Tyknn7UoiSArpd/Y+97drYOl4CmTU
MysEMYBXVnRljSp/S7L2geQTBII0aJ5qcwVGbHznvPoI3FROcSIfvVDFDIsn+Xu+
EvS8MjukExfAt2yaLigGXntFKO/hW4kCAwEAAaNTMFEwCQYDVR0TBAIwADAlBgNV
HREEHjAcggduZ2h0dHAyggdhbm90aGVygghhbm90aGVyMjAdBgNVHQ4EFgQU+ApB
4gHT4GQtP9g8MGcLUAJHflUwDQYJKoZIhvcNAQELBQADggIBAEN3PWX+Nvp/lEoE
LyV1pC1iqJT2fHVq7DUMfzLsQ26mN0uNcVDygQL2bKb3Qk6TYtJ4C7DQTrxLSJ6U
ZrUVPPlOB3sJ4aBfsQFGrbF8+0Jh0mOsw/JQLUBTOIiwMOdLw0Ta3d6scyT2WqnX
em2hvXZlpDAsyUeGJTKSzMaLxPkLeJ1/gek7eP12jgR6cbr/FPeIp80zUC8X6zWC
OIl920/d6Lua5zUt+RFWLBgKIELIbWxNHKCh34/k+T7V22syUuzJ0LEiCW8uWBua
/AI6GDZKlqenP4VUyuPsg/ed3FtrC+k3kWU6+bh0RaDqNt6BryQE7SWnsD3voPeA
Z8PCnZCVGTkreD7uQw7Afss7bR+sjrv6zAFEP7pRewXQfX4Qb1Na2ypikBcz0qPi
rnufGBsIfLZj65ihw3XEcXj+/++5APBNLMl1xUM+9i8xpKjccKPSXSnR/NODO1w0
cHN7e3vFRas8v0ZOCeQDoFT7ZEvJ8gCItyUBMgbIKPN9OzycOfLRLSXXqaKwXUN7
yYqwSA7jxLxtHdW9+mfoxgV7p+KyhrvndpmPr9qUJh875I1/3o2LC4hj8ISolwi+
Yqo+bEV4i+pe7WbKzTap9W1duspqUmc/90Ugqbc4nUId0g4wgHQJ4KbMw83KVgVX
y7cwXfta4GVx+F9FXMewVbZibWki
-----END CERTIFICATE-----
-----BEGIN CERTIFICATE-----
MIIFZTCCA02gAwIBAgIUVpbyHfKmGNgeQnnyEBY/U9GeDgYwDQYJKoZIhvcNAQEL
BQAwQTELMAkGA1UEBhMCUFQxCzAJBgNVBAgMAkxYMRIwEAYDVQQKDAlCdW1iYWts
YXQxETAPBgNVBAMMCGh0dHB4LWNhMCAXDTIzMDkwODIxNTQ1MVoYDzMwMDMxMTEw
MjE1NDUxWjBBMQswCQYDVQQGEwJQVDELMAkGA1UECAwCTFgxEjAQBgNVBAoMCUJ1
bWJha2xhdDERMA8GA1UEAwwIaHR0cHgtY2EwggIiMA0GCSqGSIb3DQEBAQUAA4IC
DwAwggIKAoICAQDGsoXHN7aNEUTxqUjmJVSu5mgrl8MwCw8BvRfLoiPIQCkwcr4+
+/PQNeC3OynP3N/oqsdtDITthg6ITW6v9WCftL3lv0HaIdvJUBkyOA7omOvtQOrN
tgXwVCmXbFGXqaf+VxXbxeuucPHNhK3anlcyiedMGBa+9USivKdTQzcN3sGeQh6O
AcHVtjHgshrbN6dQIiVpndlZRrVjBWAt8tOTD29b2vGO5Pc13u60I4UaGVn0nu5F
dU7Jz7ZG4lZL/mlyHqIyxCPUcuHTUEGeSs8kSBjV4FvGQBjOK/776avDp08zf1XU
qoXoTycPNHbHn0QLmjWfsiD5iL33nEJPakuhBCYfC4riSPHZxb2t1a1PJWrpUy8i
+XbvJs57qfDQMDbuM/JZVEoNUKs143+QPPXvsIt2L/IZPMdQBf9DsRX+L3jYYJik
O4NTbOUyuuWwJM8hS2CppHGj3tA1l3RGHsKPSKzMi0pwcZ1YNN9IFlfwKyDyd/Zw
tYpCFoW0zJe0BD/9GasPrpa9K5YgGscrYR/tiAVOaCYnuW8lPh2tWCD92VXbpC6C
XpOfX0eaA2cym8dIEHNHsrS+69Yos3OxKdzcbiq5c84/2bwGzU3DbxEJCXX2R21m
0ekgkpceGCGb7FFj33xR2clvX78bZAexnye3BYZrsHGMwUaGB9QksjsxAwIDAQAB
o1MwUTAdBgNVHQ4EFgQUybAc/FKNAHFpo0yDFDw2y8BNJ0owHwYDVR0jBBgwFoAU
ybAc/FKNAHFpo0yDFDw2y8BNJ0owDwYDVR0TAQH/BAUwAwEB/zANBgkqhkiG9w0B
AQsFAAOCAgEAGSmbA5NFTDts1UuRwp56O7NMvZXfEG1PNmpe552FbirEbMauoYZb
Erz1LunCHMHr6dLz6fstihtlkKjFZV5v+S4IopIySFH3dkNPG4Xht16TkLc4rGed
r48JCU8aIYns+fL+7XITMWMpl8bxXx8DfacRJnTDgkv4ZtrkW+rfpsp8LnhUdVxJ
z+tK5ZdLIOwUPGVJG3fR2g6BEV8SeDeEpvn9yVDSUrGIOuvqhHBZk2M11KMZVF2j
gIicy0+MksonE+w14HPfYXdAfjcFYTuo9SRvwLMp6TgOZX1NSUz6nZYlIHb499Ks
D6T2iQQPI4u2C0pgve8PzK3UxgP2c/swzUtiXqG88lL8r5Wh2jUeYV0KEnKs9Azn
5cCx0jvgGm8zjapSqTAEqcz5WMVnutwmiYeDu95ZhT58TWteR04+6ipHAFXd10uu
Riug44lbTb+hfQdEyMzGGLxkCPCuxeVE0rrCv1ippQNEtxSyxkkdMmz2SAzygbeK
ybpwzbvzzmUX1P99iTMQ7Int/V2bkB8yZnUzt+64AJvukW7V0xu4uyFZNq3z5dgW
LkVsdO0y0CShmsLQhLMKDqCU6+YXDMVN3l3fX8YIdUq3P9AzpspaYTkxk2HMvSkK
IBcyubR0FryYhSi0cSbPcmMpvB8ppWVvB7pCVawF/DvXh/u19c7C5Qk=
-----END CERTIFICATE-----
