Certificate:
    Data:
        Version: 3 (0x2)
        Serial Number: 2 (0x2)
        Signature Algorithm: sha256WithRSAEncryption
        Issuer: C=PT, ST=LX, O=Bumbaklat, CN=httpx-ca
        Validity
            Not Before: Apr 16 11:54:46 2025 GMT
            Not After : Apr 16 11:54:46 2026 GMT
        Subject: C=PT, ST=LX, O=Bumbaklat, CN=localhost-server
        Subject Public Key Info:
            Public Key Algorithm: rsaEncryption
                Public-Key: (2048 bit)
                Modulus:
                    00:9e:13:0d:b3:46:44:15:bd:a6:ef:e6:63:ce:90:
                    28:37:7d:f5:b0:6e:52:16:0b:47:76:ae:31:33:13:
                    2c:87:18:4d:e8:4c:ab:67:d0:84:5f:f7:fb:15:a5:
                    89:79:7c:f6:a2:b7:5c:7c:86:83:f1:c9:82:6c:d8:
                    d0:1a:8d:30:96:bb:cd:28:75:5f:7b:8e:f1:bf:a7:
                    26:6f:e3:7a:37:12:33:ef:91:45:22:b0:29:22:41:
                    14:c1:c6:32:e1:81:77:be:0f:8d:13:0b:d0:17:21:
                    07:35:cb:10:aa:8d:61:cc:67:6a:50:7c:91:18:bc:
                    e5:54:6e:cc:83:31:ab:9d:5e:c5:97:60:c8:8a:17:
                    82:94:f5:7f:ba:b8:ce:ab:80:d1:8c:9d:8b:52:00:
                    92:fd:a9:fd:05:44:a0:7d:3b:84:f5:55:cb:80:bc:
                    0a:0c:73:bf:41:a9:4e:3b:b9:e9:64:82:bd:ca:83:
                    74:e9:9a:e7:fa:b7:02:3d:58:56:eb:43:b1:1c:35:
                    e2:85:87:3d:13:8c:06:ae:24:3f:af:7c:d8:01:90:
                    5d:9b:3d:19:5c:33:18:ea:22:7b:aa:b6:4b:9b:a9:
                    82:55:7a:f1:39:70:19:31:ed:f0:91:8f:44:43:bb:
                    92:81:c5:74:8b:d2:9c:e8:b4:85:91:74:dc:36:c9:
                    c8:e5
                Exponent: 65537 (0x10001)
        X509v3 extensions:
            X509v3 Basic Constraints:
                CA:FALSE
            X509v3 Subject Alternative Name:
                DNS:localhost, IP Address:127.0.0.1, IP Address:0:0:0:0:0:0:0:1
            X509v3 Subject Key Identifier:
                01:2C:B2:AA:BB:8B:3B:60:26:F5:C6:1A:D2:5F:A4:F9:3D:D3:1B:6C
            X509v3 Authority Key Identifier:
                73:F5:28:0B:09:15:DC:36:FF:5C:B1:E3:BF:9C:BF:42:36:AC:30:4D
    Signature Algorithm: sha256WithRSAEncryption
    Signature Value:
        c7:78:aa:e6:f0:7a:22:af:ad:7a:52:e5:aa:84:60:4c:11:7b:
        7b:fd:2e:26:25:d6:66:1e:c8:77:68:1e:af:0d:6c:65:1f:16:
        8e:82:24:f6:4e:c1:4f:6f:42:57:2d:c5:47:5b:93:97:a2:74:
        92:4d:f5:16:66:75:2e:e8:06:2f:bc:36:bd:bf:ff:47:27:56:
        cd:72:59:d5:a1:30:3f:25:e9:e4:31:5d:8e:1d:61:e8:47:d0:
        5f:58:58:a0:91:bb:05:fc:24:49:23:76:8b:5d:38:c6:51:93:
        64:20:f4:74:7b:b8:92:72:f2:2b:c4:d6:15:f2:a5:1b:63:11:
        d2:9d:e2:08:c2:80:b2:5b:29:35:dc:f6:32:8d:66:86:1c:bb:
        f4:db:ae:fd:67:55:67:ff:d3:cf:18:d7:9f:07:f3:e6:1d:26:
        eb:4f:c0:b7:b4:fa:c8:5e:c5:dd:72:6c:04:02:c6:cb:0d:81:
        6c:b4:d3:eb:73:44:a8:17:f1:0e:d4:0f:ed:af:0a:86:a0:74:
        ac:3c:38:b1:93:d2:19:28:0e:2b:32:d4:a7:7a:b1:f0:08:9d:
        a4:32:c1:ad:a1:48:77:6e:64:0f:c3:97:da:61:83:89:06:e7:
        ed:d1:57:38:2f:98:6a:8a:7f:d2:8d:66:19:71:22:c0:c8:39:
        a7:94:30:c1:d7:a8:3f:bd:25:4b:0c:bc:9f:89:ae:ef:93:df:
        af:a6:c9:f4:e9:71:4a:c0:b1:ad:e0:e9:a7:00:7b:7e:60:bc:
        5f:ef:18:2d:79:8a:4d:0e:92:f7:b9:19:29:7c:0f:81:15:84:
        ba:ec:f2:37:d9:c1:c0:cc:fb:95:aa:23:39:df:97:55:e1:93:
        f5:3d:26:08:42:21:21:c8:8f:ed:62:73:bf:3e:97:72:5d:03:
        b7:be:81:eb:fe:25:44:49:f9:3c:e9:ed:15:0d:fc:a3:e7:57:
        5d:d3:46:85:8d:5e:48:c4:ca:d1:a0:b6:b7:c6:76:36:af:08:
        2d:1b:0e:79:d5:91:71:26:24:1a:ce:66:8b:b3:72:20:6f:34:
        8d:80:04:43:ca:52:c6:a5:49:e8:df:0f:da:b6:f8:c0:af:5a:
        6d:55:60:92:1f:7f:35:d9:96:86:36:4b:85:6c:9d:5c:d8:ff:
        14:72:32:4c:a1:95:e0:f4:a1:d8:b8:a1:86:97:3f:f1:09:7e:
        3a:c8:cb:f0:1f:15:61:08:44:fd:fc:20:bd:cd:de:d9:66:d3:
        d1:45:28:2f:2b:6a:92:6e:ef:d6:c7:e5:ff:29:f1:74:ce:2b:
        f4:d3:23:99:37:0d:74:02:a5:3d:89:b7:7d:3b:ac:a6:5a:16:
        ad:fb:e7:84:5a:ce:db:37
-----BEGIN CERTIFICATE-----
MIIEgDCCAmigAwIBAgIBAjANBgkqhkiG9w0BAQsFADBBMQswCQYDVQQGEwJQVDEL
MAkGA1UECAwCTFgxEjAQBgNVBAoMCUJ1bWJha2xhdDERMA8GA1UEAwwIaHR0cHgt
Y2EwHhcNMjUwNDE2MTE1NDQ2WhcNMjYwNDE2MTE1NDQ2WjBJMQswCQYDVQQGEwJQ
VDELMAkGA1UECAwCTFgxEjAQBgNVBAoMCUJ1bWJha2xhdDEZMBcGA1UEAwwQbG9j
YWxob3N0LXNlcnZlcjCCASIwDQYJKoZIhvcNAQEBBQADggEPADCCAQoCggEBAJ4T
DbNGRBW9pu/mY86QKDd99bBuUhYLR3auMTMTLIcYTehMq2fQhF/3+xWliXl89qK3
XHyGg/HJgmzY0BqNMJa7zSh1X3uO8b+nJm/jejcSM++RRSKwKSJBFMHGMuGBd74P
jRML0BchBzXLEKqNYcxnalB8kRi85VRuzIMxq51exZdgyIoXgpT1f7q4zquA0Yyd
i1IAkv2p/QVEoH07hPVVy4C8Cgxzv0GpTju56WSCvcqDdOma5/q3Aj1YVutDsRw1
4oWHPROMBq4kP6982AGQXZs9GVwzGOoie6q2S5upglV68TlwGTHt8JGPREO7koHF
dIvSnOi0hZF03DbJyOUCAwEAAaN7MHkwCQYDVR0TBAIwADAsBgNVHREEJTAjggls
b2NhbGhvc3SHBH8AAAGHEAAAAAAAAAAAAAAAAAAAAAEwHQYDVR0OBBYEFAEssqq7
iztgJvXGGtJfpPk90xtsMB8GA1UdIwQYMBaAFHP1KAsJFdw2/1yx47+cv0I2rDBN
MA0GCSqGSIb3DQEBCwUAA4ICAQDHeKrm8Hoir616UuWqhGBMEXt7/S4mJdZmHsh3
aB6vDWxlHxaOgiT2TsFPb0JXLcVHW5OXonSSTfUWZnUu6AYvvDa9v/9HJ1bNclnV
oTA/JenkMV2OHWHoR9BfWFigkbsF/CRJI3aLXTjGUZNkIPR0e7iScvIrxNYV8qUb
YxHSneIIwoCyWyk13PYyjWaGHLv02679Z1Vn/9PPGNefB/PmHSbrT8C3tPrIXsXd
cmwEAsbLDYFstNPrc0SoF/EO1A/trwqGoHSsPDixk9IZKA4rMtSnerHwCJ2kMsGt
oUh3bmQPw5faYYOJBuft0Vc4L5hqin/SjWYZcSLAyDmnlDDB16g/vSVLDLyfia7v
k9+vpsn06XFKwLGt4OmnAHt+YLxf7xgteYpNDpL3uRkpfA+BFYS67PI32cHAzPuV
qiM535dV4ZP1PSYIQiEhyI/tYnO/PpdyXQO3voHr/iVESfk86e0VDfyj51dd00aF
jV5IxMrRoLa3xnY2rwgtGw551ZFxJiQazmaLs3IgbzSNgARDylLGpUno3w/atvjA
r1ptVWCSH3812ZaGNkuFbJ1c2P8UcjJMoZXg9KHYuKGGlz/xCX46yMvwHxVhCET9
/CC9zd7ZZtPRRSgvK2qSbu/Wx+X/KfF0ziv00yOZNw10AqU9ibd9O6ymWhat++eE
Ws7bNw==
-----END CERTIFICATE-----
