Certificate:
    Data:
        Version: 3 (0x2)
        Serial Number: 2 (0x2)
        Signature Algorithm: sha256WithRSAEncryption
        Issuer: C=PT, ST=LX, O=Bumbaklat, CN=httpx-ca
        Validity
            Not Before: Sep 27 08:10:44 2024 GMT
            Not After : Sep 27 08:10:44 2025 GMT
        Subject: C=PT, ST=LX, O=Bumbaklat, CN=localhost-server
        Subject Public Key Info:
            Public Key Algorithm: rsaEncryption
                Public-Key: (2048 bit)
                Modulus:
                    00:97:dd:b0:d5:e6:c1:79:7b:3b:20:ea:c0:7d:cc:
                    b7:15:5a:be:e2:33:aa:51:cd:94:af:2d:03:3f:87:
                    47:10:61:4c:83:e8:c8:b6:d4:77:1a:2c:b1:8b:16:
                    d7:47:30:c4:ae:b6:90:2b:d6:39:83:ac:93:d2:9d:
                    78:df:6c:fd:c8:35:b0:33:8e:ad:b8:7b:67:fd:ff:
                    9d:1e:24:27:18:7b:da:64:97:9e:2f:b4:b2:14:3d:
                    f6:4a:71:79:0f:5f:c9:e5:ca:68:22:e3:e8:ac:97:
                    91:17:c5:0e:e6:74:43:a1:0c:21:ad:ca:47:83:51:
                    29:6c:53:67:a0:ef:90:95:87:1b:0f:11:98:32:d0:
                    9d:9e:6c:f9:9b:17:0b:26:64:d8:e3:e8:c8:d5:cf:
                    c2:ce:ca:c8:67:ee:b9:5c:69:3d:4b:77:8d:4f:ee:
                    06:ef:44:22:17:ad:b7:a6:77:bd:90:41:28:89:4d:
                    82:9c:1a:63:b3:5e:82:64:e9:d3:00:e3:3e:d8:90:
                    f4:7c:2d:c4:02:04:a1:bf:70:f3:c8:19:3b:d0:87:
                    53:51:b2:70:28:f3:be:53:d5:52:16:a3:04:ba:74:
                    f0:66:d8:9b:71:e5:82:fc:fb:9a:de:86:4e:d5:02:
                    8f:82:11:2e:3b:5b:65:d4:07:98:cf:ed:bc:32:28:
                    98:e3
                Exponent: 65537 (0x10001)
        X509v3 extensions:
            X509v3 Basic Constraints: 
                CA:FALSE
            X509v3 Subject Alternative Name: 
                DNS:localhost, IP Address:127.0.0.1, IP Address:0:0:0:0:0:0:0:1
            X509v3 Subject Key Identifier: 
                EB:3E:59:7F:68:3C:6F:A1:E9:86:B0:B8:AA:96:B5:08:E5:BA:5E:9F
            X509v3 Authority Key Identifier: 
                C9:B2:95:49:B7:9C:A5:F7:B1:DE:74:C0:0E:7B:E6:16:14:4E:F2:59
    Signature Algorithm: sha256WithRSAEncryption
    Signature Value:
        2b:c4:73:62:e2:c2:3d:55:42:f7:2f:f4:de:30:11:30:84:33:
        04:2d:c3:71:67:2d:0a:ac:4b:60:ee:01:ab:06:97:45:a7:a2:
        5f:f9:40:c6:49:5f:96:62:5c:2f:ae:8e:1e:20:80:5e:bc:40:
        38:ac:20:c2:f3:18:d7:fc:60:a0:14:4e:94:2c:9b:b9:5e:fa:
        e6:23:ac:1f:fd:b6:e6:a9:ad:d6:08:12:f2:95:77:83:1e:2b:
        5e:34:50:7c:fd:70:db:4f:77:12:bd:05:c4:18:5b:78:2d:96:
        61:11:0a:05:e8:e6:c6:fc:b0:b7:97:d9:96:a5:be:73:4f:b6:
        6e:22:95:e2:c7:b3:3d:0f:51:bb:84:f2:36:b7:86:38:20:9a:
        7a:5c:69:23:82:fc:cc:49:f8:8c:23:84:e8:4a:b2:54:88:1a:
        81:22:97:16:53:bf:fd:02:fa:3a:10:cb:13:b8:71:25:07:f5:
        17:39:9b:e1:51:12:68:fa:7b:02:d0:f4:de:51:26:c3:df:42:
        a5:f6:05:cd:9e:ad:fd:dd:0e:e6:0a:d9:65:68:76:ff:ce:88:
        1e:df:59:77:05:7f:2e:5c:6a:4a:ff:af:cc:01:7d:5e:ee:5c:
        4b:22:0e:e6:97:b8:d4:e2:db:c1:1f:48:ac:63:21:b9:2b:dd:
        a9:20:b9:68:ee:b9:3f:ee:0e:7b:b5:be:73:2e:cf:ea:30:60:
        2c:05:6a:56:43:ed:37:36:f2:a6:e8:a4:09:3e:9b:d1:c8:10:
        eb:b1:8b:9c:78:55:6b:94:ef:f7:1a:44:08:19:77:ce:3a:28:
        e0:64:9d:f3:3f:a5:a9:2c:f4:bc:48:f7:62:e4:5c:19:20:2a:
        79:16:38:a4:95:6d:9b:82:fe:45:b6:82:e4:4d:b1:df:fb:1c:
        a2:30:f2:00:70:85:d6:be:f4:ff:0f:0b:37:8f:30:58:86:cf:
        b6:1f:c1:d4:b0:2c:4a:6d:e0:45:40:29:f5:b9:0c:72:e7:af:
        b2:1b:92:f2:16:1c:f9:b2:17:9a:8d:cc:b6:63:b7:3f:ad:78:
        92:47:6e:51:b0:1d:27:45:53:48:1a:e0:cf:0a:a3:11:e5:97:
        89:c4:95:63:1a:58:7e:0d:8e:8c:4f:8c:98:80:72:ac:0f:42:
        cf:93:17:c6:f5:0b:20:56:cd:b8:54:ac:75:a1:8f:3e:04:dc:
        89:80:f7:33:a6:82:f1:04:6a:dd:40:3b:83:e0:0a:24:9f:51:
        30:6b:55:76:7d:50:3e:d6:a6:c6:4a:b3:40:e5:cb:1b:8d:f1:
        5a:bd:f2:38:81:b6:b4:53:b7:05:9a:da:7c:15:b3:92:e6:b0:
        f2:a9:ce:3e:fd:da:3f:4f
-----BEGIN CERTIFICATE-----
MIIEgDCCAmigAwIBAgIBAjANBgkqhkiG9w0BAQsFADBBMQswCQYDVQQGEwJQVDEL
MAkGA1UECAwCTFgxEjAQBgNVBAoMCUJ1bWJha2xhdDERMA8GA1UEAwwIaHR0cHgt
Y2EwHhcNMjQwOTI3MDgxMDQ0WhcNMjUwOTI3MDgxMDQ0WjBJMQswCQYDVQQGEwJQ
VDELMAkGA1UECAwCTFgxEjAQBgNVBAoMCUJ1bWJha2xhdDEZMBcGA1UEAwwQbG9j
YWxob3N0LXNlcnZlcjCCASIwDQYJKoZIhvcNAQEBBQADggEPADCCAQoCggEBAJfd
sNXmwXl7OyDqwH3MtxVavuIzqlHNlK8tAz+HRxBhTIPoyLbUdxossYsW10cwxK62
kCvWOYOsk9KdeN9s/cg1sDOOrbh7Z/3/nR4kJxh72mSXni+0shQ99kpxeQ9fyeXK
aCLj6KyXkRfFDuZ0Q6EMIa3KR4NRKWxTZ6DvkJWHGw8RmDLQnZ5s+ZsXCyZk2OPo
yNXPws7KyGfuuVxpPUt3jU/uBu9EIhett6Z3vZBBKIlNgpwaY7NegmTp0wDjPtiQ
9HwtxAIEob9w88gZO9CHU1GycCjzvlPVUhajBLp08GbYm3Hlgvz7mt6GTtUCj4IR
LjtbZdQHmM/tvDIomOMCAwEAAaN7MHkwCQYDVR0TBAIwADAsBgNVHREEJTAjggls
b2NhbGhvc3SHBH8AAAGHEAAAAAAAAAAAAAAAAAAAAAEwHQYDVR0OBBYEFOs+WX9o
PG+h6YawuKqWtQjlul6fMB8GA1UdIwQYMBaAFMmylUm3nKX3sd50wA575hYUTvJZ
MA0GCSqGSIb3DQEBCwUAA4ICAQArxHNi4sI9VUL3L/TeMBEwhDMELcNxZy0KrEtg
7gGrBpdFp6Jf+UDGSV+WYlwvro4eIIBevEA4rCDC8xjX/GCgFE6ULJu5XvrmI6wf
/bbmqa3WCBLylXeDHiteNFB8/XDbT3cSvQXEGFt4LZZhEQoF6ObG/LC3l9mWpb5z
T7ZuIpXix7M9D1G7hPI2t4Y4IJp6XGkjgvzMSfiMI4ToSrJUiBqBIpcWU7/9Avo6
EMsTuHElB/UXOZvhURJo+nsC0PTeUSbD30Kl9gXNnq393Q7mCtllaHb/zoge31l3
BX8uXGpK/6/MAX1e7lxLIg7ml7jU4tvBH0isYyG5K92pILlo7rk/7g57tb5zLs/q
MGAsBWpWQ+03NvKm6KQJPpvRyBDrsYuceFVrlO/3GkQIGXfOOijgZJ3zP6WpLPS8
SPdi5FwZICp5FjiklW2bgv5FtoLkTbHf+xyiMPIAcIXWvvT/Dws3jzBYhs+2H8HU
sCxKbeBFQCn1uQxy56+yG5LyFhz5sheajcy2Y7c/rXiSR25RsB0nRVNIGuDPCqMR
5ZeJxJVjGlh+DY6MT4yYgHKsD0LPkxfG9QsgVs24VKx1oY8+BNyJgPczpoLxBGrd
QDuD4Aokn1Ewa1V2fVA+1qbGSrNA5csbjfFavfI4gba0U7cFmtp8FbOS5rDyqc4+
/do/Tw==
-----END CERTIFICATE-----
