Certificate:
    Data:
        Version: 3 (0x2)
        Serial Number: 1 (0x1)
        Signature Algorithm: sha256WithRSAEncryption
        Issuer: C=PT, ST=LX, O=Bumbaklat, CN=httpx-ca
        Validity
            Not Before: Mar 18 18:45:36 2024 GMT
            Not After : Mar 18 18:45:36 2025 GMT
        Subject: C=PT, ST=LX, O=Bumbaklat, OU=nghttp2, CN=nghttp2
        Subject Public Key Info:
            Public Key Algorithm: rsaEncryption
                Public-Key: (2048 bit)
                Modulus:
                    00:ca:23:48:86:41:cf:74:44:ae:0c:79:6f:0b:6d:
                    7b:c7:20:d4:a1:2d:6b:7c:db:8f:9d:59:98:ea:cd:
                    6f:dd:af:09:95:c2:7a:33:3f:c5:c2:08:77:1a:36:
                    47:ed:c4:a1:c7:e6:e6:c7:c1:01:36:dd:43:f2:0e:
                    c8:8c:fa:03:13:e0:e6:7b:ae:5c:cc:ec:ac:f1:3e:
                    f0:5a:68:a2:31:a8:90:0c:95:cc:80:67:52:49:6b:
                    46:80:b7:ed:ed:33:f5:55:c1:9a:4f:6f:ec:21:16:
                    82:d8:1d:8c:48:57:a3:8a:04:9e:fd:cc:77:d3:24:
                    4b:81:a4:f1:24:df:90:30:65:11:73:7c:a9:cc:34:
                    9e:f4:89:58:92:c6:08:a7:74:8c:ee:bc:e1:f4:fc:
                    8d:6b:7c:e4:c9:e2:77:f2:5c:2a:57:7c:d1:d7:3f:
                    6a:a7:ad:97:78:04:7b:9d:87:8a:85:bb:2a:19:95:
                    76:34:7c:b7:96:45:bd:dc:47:fb:b8:bd:7c:3a:f5:
                    f5:57:2d:26:66:ee:68:a0:82:0e:ab:0d:9c:2b:9d:
                    dd:41:0b:1e:8a:ca:1e:f8:1f:6d:57:b3:8a:1b:7a:
                    92:67:c2:16:a3:78:7d:e0:da:fd:13:7f:93:a5:d7:
                    2c:5b:f7:f0:25:e2:c2:30:59:ad:4b:ef:f4:9a:d8:
                    f7:6b
                Exponent: 65537 (0x10001)
        X509v3 extensions:
            X509v3 Basic Constraints:
                CA:FALSE
            X509v3 Subject Alternative Name:
                DNS:nghttp2, DNS:another, DNS:another2
            X509v3 Subject Key Identifier:
                54:2A:94:81:99:61:E5:0E:19:B6:2E:DD:CB:57:9C:63:9D:E0:D2:A3
            X509v3 Authority Key Identifier:
                46:7C:7C:83:BF:A0:69:C5:46:C2:91:07:8D:6B:6A:2E:55:85:E7:A7
    Signature Algorithm: sha256WithRSAEncryption
    Signature Value:
        84:85:f3:99:fc:0c:a5:5b:4b:6e:3c:95:40:6b:49:0c:10:c0:
        11:44:b4:27:54:dc:f7:06:7d:8f:c8:83:26:23:0a:4a:89:16:
        bd:05:22:65:6e:c1:ea:92:5d:84:26:91:91:cd:33:37:63:55:
        f6:34:55:c2:07:0e:e8:6a:56:6d:25:5c:21:dd:8c:52:3b:0b:
        71:98:2e:bb:cb:2b:9e:d1:e5:c3:9c:d1:16:5f:3d:8f:5d:99:
        d9:42:73:ea:dd:c9:c2:9e:7c:18:f6:3c:36:88:2c:51:1b:d0:
        3e:e2:a1:67:a5:90:9f:cf:15:31:c6:5e:0c:ec:53:81:e6:09:
        5a:8b:ab:12:0a:e0:58:46:3f:c3:2e:60:a4:bd:38:81:a0:18:
        ac:d8:3f:8c:84:4d:95:72:56:8f:2a:4d:de:eb:e5:75:00:b5:
        59:04:db:0c:4e:ea:aa:bb:64:22:6f:4c:06:c0:1e:c3:d0:9d:
        96:3c:c2:ad:6d:02:9e:78:eb:ba:b2:18:5d:82:6f:42:0d:b6:
        dd:60:85:75:50:62:96:53:14:6c:7a:86:ae:b6:56:4a:58:e5:
        82:19:aa:9a:e8:6f:76:bb:e7:7a:52:d5:58:d1:0c:ca:a7:ed:
        c2:62:05:92:66:14:e9:cb:03:09:48:5f:0e:9b:0a:3b:1d:f8:
        6f:85:0f:b6:83:97:c9:e0:88:c7:fd:3c:1e:51:2f:2d:8c:8e:
        39:39:62:6f:d3:bd:17:3a:db:d0:68:42:a7:3c:86:40:cf:83:
        f2:f1:c5:ac:22:33:8b:17:0f:97:71:29:0d:57:f9:99:ae:4c:
        b2:3d:53:4e:95:29:f9:b8:b5:cd:4c:06:aa:33:ca:9f:3a:c7:
        40:fc:8c:21:50:bd:2f:fa:97:f3:72:a2:bf:3b:5b:a3:ab:31:
        38:cb:3a:c5:14:d2:b2:04:96:2d:6b:07:8f:cb:33:50:5c:3b:
        df:44:6e:fa:d2:53:99:33:c6:fe:b4:f0:01:4f:69:e5:aa:fd:
        08:0d:51:5d:a6:2c:77:e6:50:ab:fa:b8:7c:96:fd:87:b7:83:
        01:45:88:ba:5d:f5:54:b1:0b:11:33:c0:18:de:ff:28:54:56:
        c0:4b:86:81:3f:71:b8:d1:80:24:55:fd:12:04:57:68:f5:4e:
        a6:b4:52:2f:ce:2c:d3:01:44:49:cc:a8:21:74:f8:2b:9f:6d:
        ed:66:e0:48:6e:9d:01:4e:26:f4:44:e0:e8:06:c9:e7:27:43:
        10:2e:40:67:f4:e4:74:9d:12:a6:ef:01:26:3c:1f:68:b3:49:
        b3:af:62:5b:14:16:c0:78:a1:83:e2:b2:c1:d6:6a:f0:86:ab:
        34:c3:ae:92:1a:ca:ad:44
-----BEGIN CERTIFICATE-----
MIIEgjCCAmqgAwIBAgIBATANBgkqhkiG9w0BAQsFADBBMQswCQYDVQQGEwJQVDEL
MAkGA1UECAwCTFgxEjAQBgNVBAoMCUJ1bWJha2xhdDERMA8GA1UEAwwIaHR0cHgt
Y2EwHhcNMjQwMzE4MTg0NTM2WhcNMjUwMzE4MTg0NTM2WjBSMQswCQYDVQQGEwJQ
VDELMAkGA1UECAwCTFgxEjAQBgNVBAoMCUJ1bWJha2xhdDEQMA4GA1UECwwHbmdo
dHRwMjEQMA4GA1UEAwwHbmdodHRwMjCCASIwDQYJKoZIhvcNAQEBBQADggEPADCC
AQoCggEBAMojSIZBz3RErgx5bwtte8cg1KEta3zbj51ZmOrNb92vCZXCejM/xcII
dxo2R+3Eocfm5sfBATbdQ/IOyIz6AxPg5nuuXMzsrPE+8FpoojGokAyVzIBnUklr
RoC37e0z9VXBmk9v7CEWgtgdjEhXo4oEnv3Md9MkS4Gk8STfkDBlEXN8qcw0nvSJ
WJLGCKd0jO684fT8jWt85Mnid/JcKld80dc/aqetl3gEe52HioW7KhmVdjR8t5ZF
vdxH+7i9fDr19VctJmbuaKCCDqsNnCud3UELHorKHvgfbVeziht6kmfCFqN4feDa
/RN/k6XXLFv38CXiwjBZrUvv9JrY92sCAwEAAaN0MHIwCQYDVR0TBAIwADAlBgNV
HREEHjAcggduZ2h0dHAyggdhbm90aGVygghhbm90aGVyMjAdBgNVHQ4EFgQUVCqU
gZlh5Q4Zti7dy1ecY53g0qMwHwYDVR0jBBgwFoAURnx8g7+gacVGwpEHjWtqLlWF
56cwDQYJKoZIhvcNAQELBQADggIBAISF85n8DKVbS248lUBrSQwQwBFEtCdU3PcG
fY/IgyYjCkqJFr0FImVuweqSXYQmkZHNMzdjVfY0VcIHDuhqVm0lXCHdjFI7C3GY
LrvLK57R5cOc0RZfPY9dmdlCc+rdycKefBj2PDaILFEb0D7ioWelkJ/PFTHGXgzs
U4HmCVqLqxIK4FhGP8MuYKS9OIGgGKzYP4yETZVyVo8qTd7r5XUAtVkE2wxO6qq7
ZCJvTAbAHsPQnZY8wq1tAp5467qyGF2Cb0INtt1ghXVQYpZTFGx6hq62VkpY5YIZ
qprob3a753pS1VjRDMqn7cJiBZJmFOnLAwlIXw6bCjsd+G+FD7aDl8ngiMf9PB5R
Ly2Mjjk5Ym/TvRc629BoQqc8hkDPg/LxxawiM4sXD5dxKQ1X+ZmuTLI9U06VKfm4
tc1MBqozyp86x0D8jCFQvS/6l/Nyor87W6OrMTjLOsUU0rIEli1rB4/LM1BcO99E
bvrSU5kzxv608AFPaeWq/QgNUV2mLHfmUKv6uHyW/Ye3gwFFiLpd9VSxCxEzwBje
/yhUVsBLhoE/cbjRgCRV/RIEV2j1Tqa0Ui/OLNMBREnMqCF0+Cufbe1m4EhunQFO
JvRE4OgGyecnQxAuQGf05HSdEqbvASY8H2izSbOvYlsUFsB4oYPissHWavCGqzTD
rpIayq1E
-----END CERTIFICATE-----
