Certificate:
    Data:
        Version: 3 (0x2)
        Serial Number: 1 (0x1)
        Signature Algorithm: sha256WithRSAEncryption
        Issuer: C=PT, ST=LX, O=Bumbaklat, CN=httpx-ca
        Validity
            Not Before: Feb  1 22:49:43 2022 GMT
            Not After : Feb  1 22:49:43 2023 GMT
        Subject: C=PT, ST=LX, O=Bumbaklat, OU=nghttp2, CN=nghttp2
        Subject Public Key Info:
            Public Key Algorithm: rsaEncryption
                RSA Public-Key: (2048 bit)
                Modulus:
                    00:96:f8:d7:89:d0:7e:d6:38:13:fa:8f:be:87:81:
                    0d:67:24:2c:cd:cc:51:13:7c:57:8e:74:ab:12:7b:
                    fc:f9:e2:10:d3:b1:50:74:e3:4a:7e:96:a1:ca:0f:
                    6b:16:2a:51:17:61:fd:81:78:5f:22:8a:39:dc:2e:
                    79:80:b9:73:a9:c9:24:42:92:be:78:11:4a:ec:2f:
                    75:f9:81:47:25:bb:f9:2f:cb:43:a6:0e:c8:b1:4c:
                    c1:25:2c:af:ea:24:79:62:08:c0:34:7e:22:2f:76:
                    90:75:cb:b7:bd:a3:34:93:51:dd:07:1b:d1:30:bf:
                    fa:99:56:e6:3b:a7:d3:30:d0:de:df:e7:5b:b7:5f:
                    80:55:f0:af:b3:0e:64:04:a6:42:6b:e6:e2:58:04:
                    6e:bb:09:ca:a7:9c:5e:2c:08:f2:1c:8d:c3:61:d3:
                    7c:22:95:b2:a4:9e:f6:e7:37:85:12:74:f8:dc:5b:
                    6a:3f:00:2f:23:27:28:52:10:a1:16:24:82:5b:c5:
                    58:10:00:71:b1:59:71:e1:c8:ca:e9:c6:00:e0:41:
                    dd:b8:b9:35:33:c9:24:93:d0:b4:ba:00:e6:5b:dc:
                    a2:6a:cf:38:2f:85:b1:4a:44:db:cb:02:fa:88:4d:
                    97:bb:01:19:7a:5c:6b:7d:c8:e6:d6:5e:c4:f1:af:
                    69:f1
                Exponent: 65537 (0x10001)
        X509v3 extensions:
            X509v3 Basic Constraints: 
                CA:FALSE
            X509v3 Subject Alternative Name: 
                DNS:nghttp2, DNS:another, DNS:another2
            X509v3 Subject Key Identifier: 
                E1:F6:71:9B:4F:67:AC:8F:0D:C9:7C:20:D6:7F:4F:9D:49:68:07:19
    Signature Algorithm: sha256WithRSAEncryption
         bf:3e:47:e4:ea:bd:14:0b:b9:aa:5e:74:c4:7a:7c:af:25:b4:
         05:e1:6a:ba:b1:c0:21:fc:b4:82:87:49:d7:28:e1:dd:9c:ae:
         c5:6e:72:87:08:bd:df:9f:b2:97:7f:61:0f:24:ea:86:36:a0:
         0c:8f:bd:85:37:b8:41:e9:7e:10:86:f3:f3:d1:4b:ea:98:82:
         a4:28:fb:3b:b2:7d:d7:a8:27:e6:47:1d:8c:7c:2f:69:ed:ed:
         b8:74:ae:57:36:f9:f8:6b:39:77:b2:e4:69:6c:de:e6:13:62:
         3a:76:f0:06:a6:b8:7b:55:6c:63:12:18:d6:70:4a:4e:d0:14:
         e1:9f:50:7f:a0:6f:0f:2e:79:17:3b:e8:30:d1:1a:a9:7e:37:
         45:5a:f2:54:84:9d:57:81:a4:f3:9a:0b:b5:e2:98:d4:e1:9f:
         10:ea:f9:01:08:12:02:af:e8:ee:0c:e0:ca:ec:45:ea:b2:64:
         16:ab:c8:a4:dd:37:25:d2:65:8f:50:cb:a2:09:59:50:4a:6b:
         44:f2:6f:97:fb:ef:20:9a:ad:ec:d6:e2:51:f6:77:b8:80:78:
         03:5e:80:6d:64:b3:73:9e:ee:65:ef:15:91:dd:2e:a0:bc:95:
         15:26:70:29:77:07:02:47:06:a1:40:37:cc:22:59:30:52:10:
         9f:0b:1c:80:29:32:07:49:51:d6:41:f4:8a:f0:05:41:39:8a:
         68:de:a1:70:cb:b8:ee:c6:d8:5c:0b:0b:24:fb:68:34:83:19:
         b1:d4:74:37:ee:89:af:d5:79:31:3b:d4:25:69:0d:10:fb:17:
         34:c0:75:7a:93:1b:f0:06:1e:93:25:a8:eb:80:08:69:6e:15:
         51:fb:d4:d0:3e:7d:da:ad:fd:ee:e0:dc:8d:cc:87:c1:6b:94:
         aa:7c:dc:33:fd:44:00:c9:ac:e3:75:34:fe:84:03:95:4c:01:
         8d:53:2e:0a:87:79:b2:ca:c8:c6:aa:1c:06:99:70:56:76:4d:
         88:09:4d:7a:b2:18:0e:af:a3:d1:ef:bf:7f:80:c3:ff:c1:f2:
         93:18:5d:69:f6:63:77:bd:38:ed:0c:64:3d:a6:17:46:c6:dc:
         6b:ac:44:20:f2:0d:d9:d6:7a:ea:01:be:04:25:30:0d:b4:83:
         66:71:50:74:b0:57:ca:60:d4:19:b9:85:ac:7f:9f:a6:d5:9f:
         0f:27:9f:88:0f:6e:9f:f9:a3:33:bc:79:f0:25:6e:a1:e6:4e:
         0d:69:d0:55:78:0b:bd:f2:00:1d:ac:74:4d:8f:8c:71:5d:1d:
         ad:68:10:5f:d2:a3:3a:16:88:7c:5a:04:79:8d:83:70:e8:90:
         bf:1f:fd:68:4b:4f:54:09
-----BEGIN CERTIFICATE-----
MIIEYTCCAkmgAwIBAgIBATANBgkqhkiG9w0BAQsFADBBMQswCQYDVQQGEwJQVDEL
MAkGA1UECAwCTFgxEjAQBgNVBAoMCUJ1bWJha2xhdDERMA8GA1UEAwwIaHR0cHgt
Y2EwHhcNMjIwMjAxMjI0OTQzWhcNMjMwMjAxMjI0OTQzWjBSMQswCQYDVQQGEwJQ
VDELMAkGA1UECAwCTFgxEjAQBgNVBAoMCUJ1bWJha2xhdDEQMA4GA1UECwwHbmdo
dHRwMjEQMA4GA1UEAwwHbmdodHRwMjCCASIwDQYJKoZIhvcNAQEBBQADggEPADCC
AQoCggEBAJb414nQftY4E/qPvoeBDWckLM3MURN8V450qxJ7/PniENOxUHTjSn6W
ocoPaxYqURdh/YF4XyKKOdwueYC5c6nJJEKSvngRSuwvdfmBRyW7+S/LQ6YOyLFM
wSUsr+okeWIIwDR+Ii92kHXLt72jNJNR3Qcb0TC/+plW5jun0zDQ3t/nW7dfgFXw
r7MOZASmQmvm4lgEbrsJyqecXiwI8hyNw2HTfCKVsqSe9uc3hRJ0+Nxbaj8ALyMn
KFIQoRYkglvFWBAAcbFZceHIyunGAOBB3bi5NTPJJJPQtLoA5lvcomrPOC+FsUpE
28sC+ohNl7sBGXpca33I5tZexPGvafECAwEAAaNTMFEwCQYDVR0TBAIwADAlBgNV
HREEHjAcggduZ2h0dHAyggdhbm90aGVygghhbm90aGVyMjAdBgNVHQ4EFgQU4fZx
m09nrI8NyXwg1n9PnUloBxkwDQYJKoZIhvcNAQELBQADggIBAL8+R+TqvRQLuape
dMR6fK8ltAXharqxwCH8tIKHSdco4d2crsVucocIvd+fspd/YQ8k6oY2oAyPvYU3
uEHpfhCG8/PRS+qYgqQo+zuyfdeoJ+ZHHYx8L2nt7bh0rlc2+fhrOXey5Gls3uYT
Yjp28AamuHtVbGMSGNZwSk7QFOGfUH+gbw8ueRc76DDRGql+N0Va8lSEnVeBpPOa
C7XimNThnxDq+QEIEgKv6O4M4MrsReqyZBaryKTdNyXSZY9Qy6IJWVBKa0Tyb5f7
7yCarezW4lH2d7iAeANegG1ks3Oe7mXvFZHdLqC8lRUmcCl3BwJHBqFAN8wiWTBS
EJ8LHIApMgdJUdZB9IrwBUE5imjeoXDLuO7G2FwLCyT7aDSDGbHUdDfuia/VeTE7
1CVpDRD7FzTAdXqTG/AGHpMlqOuACGluFVH71NA+fdqt/e7g3I3Mh8FrlKp83DP9
RADJrON1NP6EA5VMAY1TLgqHebLKyMaqHAaZcFZ2TYgJTXqyGA6vo9Hvv3+Aw//B
8pMYXWn2Y3e9OO0MZD2mF0bG3GusRCDyDdnWeuoBvgQlMA20g2ZxUHSwV8pg1Bm5
hax/n6bVnw8nn4gPbp/5ozO8efAlbqHmTg1p0FV4C73yAB2sdE2PjHFdHa1oEF/S
ozoWiHxaBHmNg3DokL8f/WhLT1QJ
-----END CERTIFICATE-----
