Certificate:
    Data:
        Version: 3 (0x2)
        Serial Number: 1 (0x1)
        Signature Algorithm: sha256WithRSAEncryption
        Issuer: C=PT, ST=LX, O=Bumbaklat, CN=httpx-ca
        Validity
            Not Before: Sep  8 21:54:51 2023 GMT
            Not After : Sep  7 21:54:51 2024 GMT
        Subject: C=PT, ST=LX, O=Bumbaklat, OU=nghttp2, CN=nghttp2
        Subject Public Key Info:
            Public Key Algorithm: rsaEncryption
                RSA Public-Key: (2048 bit)
                Modulus:
                    00:f5:66:92:db:72:b8:67:8a:e6:5f:a6:4e:53:95:
                    7f:8e:9a:af:59:ea:d7:17:dc:70:f8:2d:92:6b:c2:
                    f7:19:af:cf:6a:65:8e:b8:02:10:e7:de:21:0a:82:
                    f9:88:1f:46:03:0c:0a:71:53:a3:94:0e:36:fa:86:
                    a1:1d:56:73:35:6c:80:4a:33:73:f9:7b:a6:ca:8d:
                    c9:5e:2d:c7:c8:e8:d8:f4:44:8a:91:27:2a:c3:2c:
                    13:bb:0b:6e:f1:4b:32:98:fc:61:ff:64:53:9a:02:
                    d2:7e:80:93:9a:48:32:d8:9c:a3:52:50:44:bd:43:
                    04:52:84:a5:2a:e6:a7:a4:e8:dc:72:5a:c6:cb:7f:
                    21:2d:fb:55:f5:ac:99:b6:b0:f5:d7:06:1c:ae:67:
                    46:ca:f6:17:35:4c:cc:0b:26:92:65:52:62:6f:d3:
                    ca:49:e7:ed:4a:22:48:0a:e9:77:f6:3e:f7:b7:6b:
                    60:e9:78:0a:64:d4:33:2b:04:31:80:57:56:74:65:
                    8d:2a:7f:4b:b2:f6:81:e4:13:04:82:34:68:9e:6a:
                    73:05:46:6c:7c:e7:bc:fa:08:dc:54:4e:71:22:1f:
                    bd:50:c5:0c:8b:27:f9:7b:be:12:f4:bc:32:3b:a4:
                    13:17:c0:b7:6c:9a:2e:28:06:5e:7b:45:28:ef:e1:
                    5b:89
                Exponent: 65537 (0x10001)
        X509v3 extensions:
            X509v3 Basic Constraints: 
                CA:FALSE
            X509v3 Subject Alternative Name: 
                DNS:nghttp2, DNS:another, DNS:another2
            X509v3 Subject Key Identifier: 
                F8:0A:41:E2:01:D3:E0:64:2D:3F:D8:3C:30:67:0B:50:02:47:7E:55
    Signature Algorithm: sha256WithRSAEncryption
         43:77:3d:65:fe:36:fa:7f:94:4a:04:2f:25:75:a4:2d:62:a8:
         94:f6:7c:75:6a:ec:35:0c:7f:32:ec:43:6e:a6:37:4b:8d:71:
         50:f2:81:02:f6:6c:a6:f7:42:4e:93:62:d2:78:0b:b0:d0:4e:
         bc:4b:48:9e:94:66:b5:15:3c:f9:4e:07:7b:09:e1:a0:5f:b1:
         01:46:ad:b1:7c:fb:42:61:d2:63:ac:c3:f2:50:2d:40:53:38:
         88:b0:30:e7:4b:c3:44:da:dd:de:ac:73:24:f6:5a:a9:d7:7a:
         6d:a1:bd:76:65:a4:30:2c:c9:47:86:25:32:92:cc:c6:8b:c4:
         f9:0b:78:9d:7f:81:e9:3b:78:fd:76:8e:04:7a:71:ba:ff:14:
         f7:88:a7:cd:33:50:2f:17:eb:35:82:38:89:7d:db:4f:dd:e8:
         bb:9a:e7:35:2d:f9:11:56:2c:18:0a:20:42:c8:6d:6c:4d:1c:
         a0:a1:df:8f:e4:f9:3e:d5:db:6b:32:52:ec:c9:d0:b1:22:09:
         6f:2e:58:1b:9a:fc:02:3a:18:36:4a:96:a7:a7:3f:85:54:ca:
         e3:ec:83:f7:9d:dc:5b:6b:0b:e9:37:91:65:3a:f9:b8:74:45:
         a0:ea:36:de:81:af:24:04:ed:25:a7:b0:3d:ef:a0:f7:80:67:
         c3:c2:9d:90:95:19:39:2b:78:3e:ee:43:0e:c0:7e:cb:3b:6d:
         1f:ac:8e:bb:fa:cc:01:44:3f:ba:51:7b:05:d0:7d:7e:10:6f:
         53:5a:db:2a:62:90:17:33:d2:a3:e2:ae:7b:9f:18:1b:08:7c:
         b6:63:eb:98:a1:c3:75:c4:71:78:fe:ff:ef:b9:00:f0:4d:2c:
         c9:75:c5:43:3e:f6:2f:31:a4:a8:dc:70:a3:d2:5d:29:d1:fc:
         d3:83:3b:5c:34:70:73:7b:7b:7b:c5:45:ab:3c:bf:46:4e:09:
         e4:03:a0:54:fb:64:4b:c9:f2:00:88:b7:25:01:32:06:c8:28:
         f3:7d:3b:3c:9c:39:f2:d1:2d:25:d7:a9:a2:b0:5d:43:7b:c9:
         8a:b0:48:0e:e3:c4:bc:6d:1d:d5:bd:fa:67:e8:c6:05:7b:a7:
         e2:b2:86:bb:e7:76:99:8f:af:da:94:26:1f:3b:e4:8d:7f:de:
         8d:8b:0b:88:63:f0:84:a8:97:08:be:62:aa:3e:6c:45:78:8b:
         ea:5e:ed:66:ca:cd:36:a9:f5:6d:5d:ba:ca:6a:52:67:3f:f7:
         45:20:a9:b7:38:9d:42:1d:d2:0e:30:80:74:09:e0:a6:cc:c3:
         cd:ca:56:05:57:cb:b7:30:5d:fb:5a:e0:65:71:f8:5f:45:5c:
         c7:b0:55:b6:62:6d:69:22
-----BEGIN CERTIFICATE-----
MIIEYTCCAkmgAwIBAgIBATANBgkqhkiG9w0BAQsFADBBMQswCQYDVQQGEwJQVDEL
MAkGA1UECAwCTFgxEjAQBgNVBAoMCUJ1bWJha2xhdDERMA8GA1UEAwwIaHR0cHgt
Y2EwHhcNMjMwOTA4MjE1NDUxWhcNMjQwOTA3MjE1NDUxWjBSMQswCQYDVQQGEwJQ
VDELMAkGA1UECAwCTFgxEjAQBgNVBAoMCUJ1bWJha2xhdDEQMA4GA1UECwwHbmdo
dHRwMjEQMA4GA1UEAwwHbmdodHRwMjCCASIwDQYJKoZIhvcNAQEBBQADggEPADCC
AQoCggEBAPVmkttyuGeK5l+mTlOVf46ar1nq1xfccPgtkmvC9xmvz2pljrgCEOfe
IQqC+YgfRgMMCnFTo5QONvqGoR1WczVsgEozc/l7psqNyV4tx8jo2PREipEnKsMs
E7sLbvFLMpj8Yf9kU5oC0n6Ak5pIMtico1JQRL1DBFKEpSrmp6To3HJaxst/IS37
VfWsmbaw9dcGHK5nRsr2FzVMzAsmkmVSYm/Tyknn7UoiSArpd/Y+97drYOl4CmTU
MysEMYBXVnRljSp/S7L2geQTBII0aJ5qcwVGbHznvPoI3FROcSIfvVDFDIsn+Xu+
EvS8MjukExfAt2yaLigGXntFKO/hW4kCAwEAAaNTMFEwCQYDVR0TBAIwADAlBgNV
HREEHjAcggduZ2h0dHAyggdhbm90aGVygghhbm90aGVyMjAdBgNVHQ4EFgQU+ApB
4gHT4GQtP9g8MGcLUAJHflUwDQYJKoZIhvcNAQELBQADggIBAEN3PWX+Nvp/lEoE
LyV1pC1iqJT2fHVq7DUMfzLsQ26mN0uNcVDygQL2bKb3Qk6TYtJ4C7DQTrxLSJ6U
ZrUVPPlOB3sJ4aBfsQFGrbF8+0Jh0mOsw/JQLUBTOIiwMOdLw0Ta3d6scyT2WqnX
em2hvXZlpDAsyUeGJTKSzMaLxPkLeJ1/gek7eP12jgR6cbr/FPeIp80zUC8X6zWC
OIl920/d6Lua5zUt+RFWLBgKIELIbWxNHKCh34/k+T7V22syUuzJ0LEiCW8uWBua
/AI6GDZKlqenP4VUyuPsg/ed3FtrC+k3kWU6+bh0RaDqNt6BryQE7SWnsD3voPeA
Z8PCnZCVGTkreD7uQw7Afss7bR+sjrv6zAFEP7pRewXQfX4Qb1Na2ypikBcz0qPi
rnufGBsIfLZj65ihw3XEcXj+/++5APBNLMl1xUM+9i8xpKjccKPSXSnR/NODO1w0
cHN7e3vFRas8v0ZOCeQDoFT7ZEvJ8gCItyUBMgbIKPN9OzycOfLRLSXXqaKwXUN7
yYqwSA7jxLxtHdW9+mfoxgV7p+KyhrvndpmPr9qUJh875I1/3o2LC4hj8ISolwi+
Yqo+bEV4i+pe7WbKzTap9W1duspqUmc/90Ugqbc4nUId0g4wgHQJ4KbMw83KVgVX
y7cwXfta4GVx+F9FXMewVbZibWki
-----END CERTIFICATE-----
