Certificate:
    Data:
        Version: 3 (0x2)
        Serial Number: 1 (0x1)
        Signature Algorithm: sha256WithRSAEncryption
        Issuer: C=PT, ST=LX, O=Bumbaklat, CN=httpx-ca
        Validity
            Not Before: Apr 16 11:54:46 2025 GMT
            Not After : Apr 16 11:54:46 2026 GMT
        Subject: C=PT, ST=LX, O=Bumbaklat, OU=nghttp2, CN=nghttp2
        Subject Public Key Info:
            Public Key Algorithm: rsaEncryption
                Public-Key: (2048 bit)
                Modulus:
                    00:a9:ac:94:ef:23:6f:b3:63:45:6f:40:ec:3c:06:
                    48:5c:82:9b:fc:11:f7:f1:ab:e9:59:a6:d7:71:bf:
                    bc:c3:fb:42:b4:85:39:58:6f:cc:ed:bd:2c:32:32:
                    c1:0f:c0:36:ee:f0:be:99:76:60:78:7d:fa:a2:91:
                    b1:16:f9:80:b2:91:71:e6:bf:e3:02:08:a6:67:0c:
                    27:f7:e1:9a:6a:41:dc:1f:f4:9f:48:08:f1:4e:79:
                    b7:bc:8e:82:fc:c2:4a:f4:cb:7e:e6:7c:af:a1:b7:
                    d0:87:53:5a:dd:4b:88:8a:3a:16:14:67:9e:bd:5f:
                    5b:b8:0c:d5:87:45:75:37:ba:eb:43:f2:cc:18:54:
                    35:09:99:41:a0:bc:6b:31:fc:5d:b0:57:7f:0f:93:
                    26:07:dd:07:0f:6a:18:67:87:f7:ac:df:59:62:3b:
                    20:a0:e0:f2:c6:34:f8:bc:35:d4:30:53:58:e5:77:
                    d1:a9:9e:43:bc:ab:38:30:18:3d:f5:15:07:54:b9:
                    8c:ff:df:bd:39:5c:06:24:9a:56:b4:76:1e:f5:93:
                    44:78:b6:c2:4d:69:c4:94:fa:63:3f:c9:90:d5:f5:
                    fa:20:65:35:4f:ba:d4:f8:6d:1d:2c:57:bf:e0:39:
                    3d:b2:79:28:35:83:e3:3a:b1:9a:1d:a0:02:45:7c:
                    86:d3
                Exponent: 65537 (0x10001)
        X509v3 extensions:
            X509v3 Basic Constraints:
                CA:FALSE
            X509v3 Subject Alternative Name:
                DNS:nghttp2, DNS:another, DNS:another2
            X509v3 Subject Key Identifier:
                9E:E3:DC:09:0A:AA:B3:83:8F:8E:54:CB:B6:1A:03:C3:60:8D:6D:95
            X509v3 Authority Key Identifier:
                73:F5:28:0B:09:15:DC:36:FF:5C:B1:E3:BF:9C:BF:42:36:AC:30:4D
    Signature Algorithm: sha256WithRSAEncryption
    Signature Value:
        0a:2b:61:a2:9f:1c:c6:ac:e3:59:3f:f9:dc:b7:28:6d:70:6b:
        a5:96:60:d7:0b:9a:d5:70:b1:98:04:e7:f4:63:e4:06:d8:b0:
        01:fc:49:ce:8d:0b:cc:46:2e:1c:68:59:4a:3e:f2:89:4e:38:
        cd:4f:be:a5:85:3f:2c:07:39:2a:b8:0f:a1:45:a9:8a:e7:c5:
        fd:d3:b0:fc:50:b0:23:5f:16:42:84:83:14:38:35:6b:42:4b:
        e8:2c:46:08:4a:a2:5b:32:ec:b8:67:01:82:53:a0:53:ec:49:
        9d:e9:b9:d1:9f:b8:94:ce:42:96:53:1f:dd:2c:c4:fb:73:4f:
        e4:46:9a:f7:84:0f:d5:64:89:d6:6d:a4:ee:03:aa:21:8f:94:
        80:59:6e:ee:bf:1a:10:e5:4a:e9:73:db:bb:87:95:07:d3:3b:
        b1:aa:4b:ef:82:86:77:b6:80:63:8e:44:69:2d:55:fa:03:a4:
        6d:f5:3f:7d:fd:80:93:77:d4:1f:4a:2a:fb:ee:22:87:7a:48:
        93:8a:ed:eb:55:c2:5e:a7:06:15:cf:d8:fe:83:07:28:ba:e5:
        82:66:d7:af:00:66:bd:c6:38:00:ec:59:ab:f9:da:f3:27:fb:
        2d:8c:1b:d3:06:a4:a2:0c:1f:ec:d9:e7:0f:7d:71:bd:6c:38:
        12:b8:09:53:bf:b5:26:d6:54:b4:8d:af:42:87:a9:06:0c:24:
        c4:fe:56:80:73:46:5f:74:b5:5b:30:16:dc:9f:80:cc:10:a7:
        90:b2:2c:67:55:3a:98:c6:f4:7a:d6:0d:08:43:3d:ea:a8:44:
        d9:bd:13:29:34:af:a7:0d:a7:4a:19:43:e6:f5:9b:de:b3:c3:
        d7:97:42:cf:b9:1b:ad:89:ea:79:42:20:ae:93:1c:8d:73:a1:
        e7:bc:17:6a:bb:54:3b:ec:ed:13:17:ea:36:ee:29:dd:6a:4c:
        e8:56:71:93:77:1f:5c:e9:e1:c7:f3:40:7a:fa:d3:25:86:27:
        f2:6b:4a:02:80:9e:6c:ee:e6:96:a7:60:17:3c:8f:6e:e5:63:
        ab:be:39:6b:63:2a:ee:af:4e:41:aa:18:24:56:23:52:9d:66:
        a1:7d:af:3e:26:4c:ec:8e:64:fb:1c:0f:08:cd:a5:23:83:ac:
        8d:14:02:fd:e1:14:9b:8d:e5:87:77:d2:1e:14:ee:96:c3:09:
        80:c9:00:6c:58:27:94:fb:e8:d5:09:d1:bc:d4:26:35:87:7d:
        ce:a1:23:73:97:d6:60:50:cc:9f:9f:e3:59:d5:29:65:4d:65:
        9e:a5:6f:8d:d8:9b:4b:c5:c1:01:72:57:85:74:1c:fe:7e:db:
        55:ca:93:79:09:bf:35:1f
-----BEGIN CERTIFICATE-----
MIIEgjCCAmqgAwIBAgIBATANBgkqhkiG9w0BAQsFADBBMQswCQYDVQQGEwJQVDEL
MAkGA1UECAwCTFgxEjAQBgNVBAoMCUJ1bWJha2xhdDERMA8GA1UEAwwIaHR0cHgt
Y2EwHhcNMjUwNDE2MTE1NDQ2WhcNMjYwNDE2MTE1NDQ2WjBSMQswCQYDVQQGEwJQ
VDELMAkGA1UECAwCTFgxEjAQBgNVBAoMCUJ1bWJha2xhdDEQMA4GA1UECwwHbmdo
dHRwMjEQMA4GA1UEAwwHbmdodHRwMjCCASIwDQYJKoZIhvcNAQEBBQADggEPADCC
AQoCggEBAKmslO8jb7NjRW9A7DwGSFyCm/wR9/Gr6Vmm13G/vMP7QrSFOVhvzO29
LDIywQ/ANu7wvpl2YHh9+qKRsRb5gLKRcea/4wIIpmcMJ/fhmmpB3B/0n0gI8U55
t7yOgvzCSvTLfuZ8r6G30IdTWt1LiIo6FhRnnr1fW7gM1YdFdTe660PyzBhUNQmZ
QaC8azH8XbBXfw+TJgfdBw9qGGeH96zfWWI7IKDg8sY0+Lw11DBTWOV30ameQ7yr
ODAYPfUVB1S5jP/fvTlcBiSaVrR2HvWTRHi2wk1pxJT6Yz/JkNX1+iBlNU+61Pht
HSxXv+A5PbJ5KDWD4zqxmh2gAkV8htMCAwEAAaN0MHIwCQYDVR0TBAIwADAlBgNV
HREEHjAcggduZ2h0dHAyggdhbm90aGVygghhbm90aGVyMjAdBgNVHQ4EFgQUnuPc
CQqqs4OPjlTLthoDw2CNbZUwHwYDVR0jBBgwFoAUc/UoCwkV3Db/XLHjv5y/Qjas
ME0wDQYJKoZIhvcNAQELBQADggIBAAorYaKfHMas41k/+dy3KG1wa6WWYNcLmtVw
sZgE5/Rj5AbYsAH8Sc6NC8xGLhxoWUo+8olOOM1PvqWFPywHOSq4D6FFqYrnxf3T
sPxQsCNfFkKEgxQ4NWtCS+gsRghKolsy7LhnAYJToFPsSZ3pudGfuJTOQpZTH90s
xPtzT+RGmveED9VkidZtpO4DqiGPlIBZbu6/GhDlSulz27uHlQfTO7GqS++Chne2
gGOORGktVfoDpG31P339gJN31B9KKvvuIod6SJOK7etVwl6nBhXP2P6DByi65YJm
168AZr3GOADsWav52vMn+y2MG9MGpKIMH+zZ5w99cb1sOBK4CVO/tSbWVLSNr0KH
qQYMJMT+VoBzRl90tVswFtyfgMwQp5CyLGdVOpjG9HrWDQhDPeqoRNm9Eyk0r6cN
p0oZQ+b1m96zw9eXQs+5G62J6nlCIK6THI1zoee8F2q7VDvs7RMX6jbuKd1qTOhW
cZN3H1zp4cfzQHr60yWGJ/JrSgKAnmzu5panYBc8j27lY6u+OWtjKu6vTkGqGCRW
I1KdZqF9rz4mTOyOZPscDwjNpSODrI0UAv3hFJuN5Yd30h4U7pbDCYDJAGxYJ5T7
6NUJ0bzUJjWHfc6hI3OX1mBQzJ+f41nVKWVNZZ6lb43Ym0vFwQFyV4V0HP5+21XK
k3kJvzUf
-----END CERTIFICATE-----
